
test_newlib.elf:     file format elf32-littlearm
test_newlib.elf
architecture: armv6s-m, flags 0x00000112:
EXEC_P, HAS_SYMS, D_PAGED
start address 0x000001c5

Program Header:
    LOAD off    0x00010000 vaddr 0x00000000 paddr 0x00000000 align 2**16
         filesz 0x000013f0 memsz 0x000013f0 flags rwx
    LOAD off    0x00020000 vaddr 0x20000000 paddr 0x000013f0 align 2**16
         filesz 0x00000064 memsz 0x00000094 flags rw-
    LOAD off    0x00000094 vaddr 0x20000094 paddr 0x00001454 align 2**16
         filesz 0x00000000 memsz 0x00000604 flags rw-
private flags = 5000200: [Version5 EABI] [soft-float ABI]

Sections:
Idx Name              Size      VMA       LMA       File off  Algn  Flags
  0 .isr_vector       00000050  00000000  00000000  00010000  2**0  CONTENTS, ALLOC, LOAD, READONLY, DATA
  1 .text             000012fc  00000050  00000050  00010050  2**2  CONTENTS, ALLOC, LOAD, READONLY, CODE
  2 .rodata           0000009c  0000134c  0000134c  0001134c  2**2  CONTENTS, ALLOC, LOAD, READONLY, DATA
  3 .ARM.extab        00000000  000013e8  000013e8  00020064  2**0  CONTENTS
  4 .ARM              00000000  000013e8  000013e8  00020064  2**0  CONTENTS
  5 .preinit_array    00000000  000013e8  000013e8  00020064  2**0  CONTENTS, ALLOC, LOAD, DATA
  6 .init_array       00000004  000013e8  000013e8  000113e8  2**2  CONTENTS, ALLOC, LOAD, DATA
  7 .fini_array       00000004  000013ec  000013ec  000113ec  2**2  CONTENTS, ALLOC, LOAD, DATA
  8 .data             00000064  20000000  000013f0  00020000  2**2  CONTENTS, ALLOC, LOAD, DATA
  9 .bss              00000030  20000064  00001454  00020064  2**2  ALLOC
 10 ._user_heap_stack 00000604  20000094  00001454  00020094  2**0  ALLOC
 11 .ARM.attributes   00000028  00000000  00000000  00020064  2**0  CONTENTS, READONLY
 12 .debug_line       00000858  00000000  00000000  0002008c  2**0  CONTENTS, READONLY, DEBUGGING, OCTETS
 13 .debug_info       00000a6d  00000000  00000000  000208e4  2**0  CONTENTS, READONLY, DEBUGGING, OCTETS
 14 .debug_abbrev     000003be  00000000  00000000  00021351  2**0  CONTENTS, READONLY, DEBUGGING, OCTETS
 15 .debug_aranges    00000190  00000000  00000000  00021710  2**3  CONTENTS, READONLY, DEBUGGING, OCTETS
 16 .debug_str        0000041f  00000000  00000000  000218a0  2**0  CONTENTS, READONLY, DEBUGGING, OCTETS
 17 .debug_ranges     00000118  00000000  00000000  00021cc0  2**3  CONTENTS, READONLY, DEBUGGING, OCTETS
 18 .comment          0000004d  00000000  00000000  00021dd8  2**0  CONTENTS, READONLY
 19 .debug_frame      00000ab0  00000000  00000000  00021e28  2**2  CONTENTS, READONLY, DEBUGGING, OCTETS
SYMBOL TABLE:
00000000 l    d  .isr_vector	00000000 .isr_vector
00000050 l    d  .text	00000000 .text
0000134c l    d  .rodata	00000000 .rodata
000013e8 l    d  .ARM.extab	00000000 .ARM.extab
000013e8 l    d  .ARM	00000000 .ARM
000013e8 l    d  .preinit_array	00000000 .preinit_array
000013e8 l    d  .init_array	00000000 .init_array
000013ec l    d  .fini_array	00000000 .fini_array
20000000 l    d  .data	00000000 .data
20000064 l    d  .bss	00000000 .bss
20000094 l    d  ._user_heap_stack	00000000 ._user_heap_stack
00000000 l    d  .ARM.attributes	00000000 .ARM.attributes
00000000 l    d  .debug_line	00000000 .debug_line
00000000 l    d  .debug_info	00000000 .debug_info
00000000 l    d  .debug_abbrev	00000000 .debug_abbrev
00000000 l    d  .debug_aranges	00000000 .debug_aranges
00000000 l    d  .debug_str	00000000 .debug_str
00000000 l    d  .debug_ranges	00000000 .debug_ranges
00000000 l    d  .comment	00000000 .comment
00000000 l    d  .debug_frame	00000000 .debug_frame
00000000 l    df *ABS*	00000000 arch/cortex-m1/boot.o
000001d8 l       .text	00000000 LoopCopyDataInit
000001d2 l       .text	00000000 CopyDataInit
000001ea l       .text	00000000 LoopFillZerobss
000001e6 l       .text	00000000 FillZerobss
000001fa l       .text	00000000 LoopForever
00000222 l       .text	00000000 stacking_used_MSP
00000226 l       .text	00000000 get_LR_and_branch
00000000 l    df *ABS*	00000000 crtstuff.c
00001334 l     O .text	00000000 __EH_FRAME_BEGIN__
00000050 l     F .text	00000000 __do_global_dtors_aux
20000064 l       .bss	00000001 completed.1
000013ec l     O .fini_array	00000000 __do_global_dtors_aux_fini_array_entry
00000078 l     F .text	00000000 frame_dummy
20000068 l       .bss	00000018 object.0
000013e8 l     O .init_array	00000000 __frame_dummy_init_array_entry
00000000 l    df *ABS*	00000000 _thumb1_case_shi.o
00000000 l    df *ABS*	00000000 _udivsi3.o
000000ac l       .text	00000000 .udivsi3_skip_div0_test
00000000 l    df *ABS*	00000000 _dvmd_tls.o
00000000 l    df *ABS*	00000000 tee/tee_isr.o
00000000 l    df *ABS*	00000000 newlib.c
00000000 l    df *ABS*	00000000 uart_driver.c
000002f8 l     F .text	0000000e read32
00000306 l     F .text	00000016 write32
00000000 l    df *ABS*	00000000 system.c
00000000 l    df *ABS*	00000000 tee_entry.c
00000000 l    df *ABS*	00000000 main.c
00000000 l    df *ABS*	00000000 init.c
00000000 l    df *ABS*	00000000 memset.c
00000000 l    df *ABS*	00000000 printf.c
00000000 l    df *ABS*	00000000 findfp.c
00000410 l     F .text	00000048 std
00000000 l    df *ABS*	00000000 fwalk.c
00000000 l    df *ABS*	00000000 lock.c
00000000 l    df *ABS*	00000000 nano-mallocr.c
00000000 l    df *ABS*	00000000 nano-vfprintf.c
000006d8 l     F .text	0000002a __sfputc_r
00000000 l    df *ABS*	00000000 nano-vfprintf_i.c
00000000 l    df *ABS*	00000000 sbrkr.c
00000000 l    df *ABS*	00000000 stdio.c
00000000 l    df *ABS*	00000000 wbuf.c
00000000 l    df *ABS*	00000000 writer.c
00000000 l    df *ABS*	00000000 wsetup.c
00000000 l    df *ABS*	00000000 closer.c
00000000 l    df *ABS*	00000000 fflush.c
00000000 l    df *ABS*	00000000 lseekr.c
00000000 l    df *ABS*	00000000 makebuf.c
00000000 l    df *ABS*	00000000 memchr-stub.c
00000000 l    df *ABS*	00000000 mlock.c
00000000 l    df *ABS*	00000000 nano-mallocr.c
00000000 l    df *ABS*	00000000 readr.c
00000000 l    df *ABS*	00000000 fstatr.c
00000000 l    df *ABS*	00000000 isattyr.c
00000000 l    df *ABS*	00000000 sbrk.c
20000090 l     O .bss	00000004 heap_end.0
00000000 l    df *ABS*	00000000 /home/spereira/projects/opt/gcc-arm-none-eabi-10-2020-q4-major/bin/../lib/gcc/arm-none-eabi/10.2.1/thumb/v6-m/nofp/crti.o
00000000 l    df *ABS*	00000000 /home/spereira/projects/opt/gcc-arm-none-eabi-10-2020-q4-major/bin/../lib/gcc/arm-none-eabi/10.2.1/thumb/v6-m/nofp/crtn.o
00000000 l    df *ABS*	00000000 impure.c
20000004 l     O .data	00000060 impure_data
00000000 l    df *ABS*	00000000 reent.c
00000000 l    df *ABS*	00000000 
000013ec l       .init_array	00000000 __init_array_end
000013e8 l       .preinit_array	00000000 __preinit_array_end
000013e8 l       .init_array	00000000 __init_array_start
000013e8 l       .preinit_array	00000000 __preinit_array_start
000012f4 g     F .text	00000024 _isatty_r
000010dc g     F .text	00000028 _lseek_r
000001c4  w    F .text	00000038 reset_handler
0000031c g     F .text	00000040 uartlite_putchar
000003dc g     F .text	00000034 printf
00000d24 g     F .text	0000002c __sseek
000004d4 g     F .text	00000070 __sinit
00000d5c g     F .text	000000ac __swbuf_r
00000468 g     F .text	0000002c __sfmoreglue
00001204 g     F .text	00000010 __malloc_unlock
00000400 g       *ABS*	00000000 _Min_Stack_Size
000013f0 g       *ABS*	00000000 _sidata
000013e8 g       .ARM	00000000 __exidx_end
000012d0 g     F .text	00000024 _fstat_r
2000008c g     O .bss	00000004 errno
0000134c g       .text	00000000 _etext
20000064 g       .bss	00000000 _sbss
0000022c  w    F .text	00000000 busfault_handler
00000458 g     F .text	00000010 _cleanup_r
00000236  w    F .text	00000000 systick_handler
000000ac g     F .text	0000010a .hidden __udivsi3
000002c6 g     F .text	00000016 _fstat
00000000 g     O .isr_vector	00000050 _vect_table
20000064 g       .bss	00000000 __bss_start__
0000022a  w    F .text	00000000 memmanage_handler
20000000 g       .data	00000000 _sdata
00000ca0 g     F .text	00000024 _sbrk_r
000012a8 g     F .text	00000028 _read_r
000013e8 g       .ARM	00000000 __exidx_start
000002dc g     F .text	0000000c _isatty
20000082 g     O .bss	00000001 __lock___sinit_recursive_mutex
00001350 g     O .rodata	00000004 _global_impure_ptr
00000384 g     F .text	00000048 __libc_init_array
00000230  w    F .text	00000000 svc_handler
00001318 g     F .text	0000001c _sbrk
00001334 g     F .text	00000000 _init
20000094 g       .bss	00000000 _ebss
20000080 g     O .bss	00000001 __lock___malloc_recursive_mutex
00001354 g     O .rodata	00000020 __sf_fake_stderr
20000098 g       ._user_heap_stack	00000000 end
00000618 g     F .text	00000002 __retarget_lock_release_recursive
00000702 g     F .text	00000024 __sfputs_r
00000494 g     F .text	00000010 __sfp_lock_acquire
000011dc g     F .text	00000016 memchr
20000094 g       .bss	00000000 __bss_end__
00001214 g     F .text	00000094 _free_r
00000098 g     F .text	00000014 .hidden __gnu_thumb1_case_shi
00000200 g       *ABS*	00000000 _Min_Heap_Size
000002e8 g     F .text	00000010 _lseek
00000360 g     F .text	00000006 __tee_entry
00000f20 g     F .text	00000024 _close_r
00000232  w    F .text	00000000 debugmon_handler
00000e30 g     F .text	000000f0 __swsetup_r
000001c0  w    F .text	00000002 .hidden __aeabi_ldiv0
00000544 g     F .text	00000090 __sfp
000004c4 g     F .text	00000010 __sinit_lock_release
00000cc4 g     F .text	00000028 __sread
000011f4 g     F .text	00000010 __malloc_lock
0000105c g     F .text	00000080 _fflush_r
00001374 g     O .rodata	00000020 __sf_fake_stdin
00000616 g     F .text	00000002 __retarget_lock_acquire_recursive
000003cc g     F .text	00000010 memset
00000368 g     F .text	0000001c main
00000234  w    F .text	00000000 pendsv_handler
00000614 g     F .text	00000002 __retarget_lock_init_recursive
000000ac g     F .text	00000000 .hidden __aeabi_uidiv
00000d50 g     F .text	0000000c __sclose
0000061c g     F .text	000000bc _malloc_r
0000022e  w    F .text	00000000 usagefault_handler
0000035c g     F .text	00000004 SystemInit
00001340 g     F .text	00000000 _fini
000003dc g     F .text	00000034 iprintf
00000e08 g     F .text	00000028 _write_r
0000099c g     F .text	000000de _printf_common
20000000 g     O .data	00000004 _impure_ptr
00000f44 g     F .text	00000118 __sflush_r
00001104 g     F .text	00000050 __swhatbuf_r
20001000 g       .isr_vector	00000000 _estack
00000214  w    F .text	00000014 hardfault_handler
000001b8 g     F .text	00000008 .hidden __aeabi_uidivmod
00000284  w    F .text	00000034 _write
20000064 g       .data	00000000 _edata
00000228  w    F .text	00000000 nmi_handler
00000cec g     F .text	00000038 __swrite
00000728 g     F .text	00000274 _vfiprintf_r
000005d4 g     F .text	00000040 _fwalk_reent
000004a4 g     F .text	00000010 __sfp_lock_release
00001394 g     O .rodata	00000020 __sf_fake_stdout
00000260  w    F .text	00000024 _read
000001c0  w    F .text	00000002 .hidden __aeabi_idiv0
00001154 g     F .text	00000088 __smakebuf_r
00000a7c g     F .text	00000224 _printf_i
20000088 g     O .bss	00000004 __malloc_sbrk_start
0000023c g     F .text	00000000 tee_interrupt_handler
20000084 g     O .bss	00000004 __malloc_free_list
00000728 g     F .text	00000274 _vfprintf_r
20000081 g     O .bss	00000001 __lock___sfp_recursive_mutex
000002b8 g     F .text	0000000e _close
000004b4 g     F .text	00000010 __sinit_lock_acquire



Disassembly of section .isr_vector:

00000000 <_vect_table>:
   0:	20001000 	andcs	r1, r0, r0
   4:	000001c5 	andeq	r0, r0, r5, asr #3
   8:	00000229 	andeq	r0, r0, r9, lsr #4
   c:	00000215 	andeq	r0, r0, r5, lsl r2
  10:	0000022b 	andeq	r0, r0, fp, lsr #4
  14:	0000022d 	andeq	r0, r0, sp, lsr #4
  18:	0000022f 	andeq	r0, r0, pc, lsr #4
	...
  2c:	00000231 	andeq	r0, r0, r1, lsr r2
  30:	00000233 	andeq	r0, r0, r3, lsr r2
  34:	00000000 	andeq	r0, r0, r0
  38:	00000235 	andeq	r0, r0, r5, lsr r2
  3c:	00000237 	andeq	r0, r0, r7, lsr r2
  40:	0000023d 	andeq	r0, r0, sp, lsr r2
	...

Disassembly of section .text:

00000050 <__do_global_dtors_aux>:
      50:	b510      	push	{r4, lr}
      52:	4c06      	ldr	r4, [pc, #24]	; (6c <__do_global_dtors_aux+0x1c>)
      54:	7823      	ldrb	r3, [r4, #0]
      56:	2b00      	cmp	r3, #0
      58:	d107      	bne.n	6a <__do_global_dtors_aux+0x1a>
      5a:	4b05      	ldr	r3, [pc, #20]	; (70 <__do_global_dtors_aux+0x20>)
      5c:	2b00      	cmp	r3, #0
      5e:	d002      	beq.n	66 <__do_global_dtors_aux+0x16>
      60:	4804      	ldr	r0, [pc, #16]	; (74 <__do_global_dtors_aux+0x24>)
      62:	e000      	b.n	66 <__do_global_dtors_aux+0x16>
      64:	bf00      	nop
      66:	2301      	movs	r3, #1
      68:	7023      	strb	r3, [r4, #0]
      6a:	bd10      	pop	{r4, pc}
      6c:	20000064 	andcs	r0, r0, r4, rrx
      70:	00000000 	andeq	r0, r0, r0
      74:	00001334 	andeq	r1, r0, r4, lsr r3

00000078 <frame_dummy>:
      78:	4b04      	ldr	r3, [pc, #16]	; (8c <frame_dummy+0x14>)
      7a:	b510      	push	{r4, lr}
      7c:	2b00      	cmp	r3, #0
      7e:	d003      	beq.n	88 <frame_dummy+0x10>
      80:	4903      	ldr	r1, [pc, #12]	; (90 <frame_dummy+0x18>)
      82:	4804      	ldr	r0, [pc, #16]	; (94 <frame_dummy+0x1c>)
      84:	e000      	b.n	88 <frame_dummy+0x10>
      86:	bf00      	nop
      88:	bd10      	pop	{r4, pc}
      8a:	46c0      	nop			; (mov r8, r8)
      8c:	00000000 	andeq	r0, r0, r0
      90:	20000068 	andcs	r0, r0, r8, rrx
      94:	00001334 	andeq	r1, r0, r4, lsr r3

00000098 <__gnu_thumb1_case_shi>:
      98:	b403      	push	{r0, r1}
      9a:	4671      	mov	r1, lr
      9c:	0849      	lsrs	r1, r1, #1
      9e:	0040      	lsls	r0, r0, #1
      a0:	0049      	lsls	r1, r1, #1
      a2:	5e09      	ldrsh	r1, [r1, r0]
      a4:	0049      	lsls	r1, r1, #1
      a6:	448e      	add	lr, r1
      a8:	bc03      	pop	{r0, r1}
      aa:	4770      	bx	lr

000000ac <__udivsi3>:
      ac:	2200      	movs	r2, #0
      ae:	0843      	lsrs	r3, r0, #1
      b0:	428b      	cmp	r3, r1
      b2:	d374      	bcc.n	19e <__udivsi3+0xf2>
      b4:	0903      	lsrs	r3, r0, #4
      b6:	428b      	cmp	r3, r1
      b8:	d35f      	bcc.n	17a <__udivsi3+0xce>
      ba:	0a03      	lsrs	r3, r0, #8
      bc:	428b      	cmp	r3, r1
      be:	d344      	bcc.n	14a <__udivsi3+0x9e>
      c0:	0b03      	lsrs	r3, r0, #12
      c2:	428b      	cmp	r3, r1
      c4:	d328      	bcc.n	118 <__udivsi3+0x6c>
      c6:	0c03      	lsrs	r3, r0, #16
      c8:	428b      	cmp	r3, r1
      ca:	d30d      	bcc.n	e8 <__udivsi3+0x3c>
      cc:	22ff      	movs	r2, #255	; 0xff
      ce:	0209      	lsls	r1, r1, #8
      d0:	ba12      	rev	r2, r2
      d2:	0c03      	lsrs	r3, r0, #16
      d4:	428b      	cmp	r3, r1
      d6:	d302      	bcc.n	de <__udivsi3+0x32>
      d8:	1212      	asrs	r2, r2, #8
      da:	0209      	lsls	r1, r1, #8
      dc:	d065      	beq.n	1aa <__udivsi3+0xfe>
      de:	0b03      	lsrs	r3, r0, #12
      e0:	428b      	cmp	r3, r1
      e2:	d319      	bcc.n	118 <__udivsi3+0x6c>
      e4:	e000      	b.n	e8 <__udivsi3+0x3c>
      e6:	0a09      	lsrs	r1, r1, #8
      e8:	0bc3      	lsrs	r3, r0, #15
      ea:	428b      	cmp	r3, r1
      ec:	d301      	bcc.n	f2 <__udivsi3+0x46>
      ee:	03cb      	lsls	r3, r1, #15
      f0:	1ac0      	subs	r0, r0, r3
      f2:	4152      	adcs	r2, r2
      f4:	0b83      	lsrs	r3, r0, #14
      f6:	428b      	cmp	r3, r1
      f8:	d301      	bcc.n	fe <__udivsi3+0x52>
      fa:	038b      	lsls	r3, r1, #14
      fc:	1ac0      	subs	r0, r0, r3
      fe:	4152      	adcs	r2, r2
     100:	0b43      	lsrs	r3, r0, #13
     102:	428b      	cmp	r3, r1
     104:	d301      	bcc.n	10a <__udivsi3+0x5e>
     106:	034b      	lsls	r3, r1, #13
     108:	1ac0      	subs	r0, r0, r3
     10a:	4152      	adcs	r2, r2
     10c:	0b03      	lsrs	r3, r0, #12
     10e:	428b      	cmp	r3, r1
     110:	d301      	bcc.n	116 <__udivsi3+0x6a>
     112:	030b      	lsls	r3, r1, #12
     114:	1ac0      	subs	r0, r0, r3
     116:	4152      	adcs	r2, r2
     118:	0ac3      	lsrs	r3, r0, #11
     11a:	428b      	cmp	r3, r1
     11c:	d301      	bcc.n	122 <__udivsi3+0x76>
     11e:	02cb      	lsls	r3, r1, #11
     120:	1ac0      	subs	r0, r0, r3
     122:	4152      	adcs	r2, r2
     124:	0a83      	lsrs	r3, r0, #10
     126:	428b      	cmp	r3, r1
     128:	d301      	bcc.n	12e <__udivsi3+0x82>
     12a:	028b      	lsls	r3, r1, #10
     12c:	1ac0      	subs	r0, r0, r3
     12e:	4152      	adcs	r2, r2
     130:	0a43      	lsrs	r3, r0, #9
     132:	428b      	cmp	r3, r1
     134:	d301      	bcc.n	13a <__udivsi3+0x8e>
     136:	024b      	lsls	r3, r1, #9
     138:	1ac0      	subs	r0, r0, r3
     13a:	4152      	adcs	r2, r2
     13c:	0a03      	lsrs	r3, r0, #8
     13e:	428b      	cmp	r3, r1
     140:	d301      	bcc.n	146 <__udivsi3+0x9a>
     142:	020b      	lsls	r3, r1, #8
     144:	1ac0      	subs	r0, r0, r3
     146:	4152      	adcs	r2, r2
     148:	d2cd      	bcs.n	e6 <__udivsi3+0x3a>
     14a:	09c3      	lsrs	r3, r0, #7
     14c:	428b      	cmp	r3, r1
     14e:	d301      	bcc.n	154 <__udivsi3+0xa8>
     150:	01cb      	lsls	r3, r1, #7
     152:	1ac0      	subs	r0, r0, r3
     154:	4152      	adcs	r2, r2
     156:	0983      	lsrs	r3, r0, #6
     158:	428b      	cmp	r3, r1
     15a:	d301      	bcc.n	160 <__udivsi3+0xb4>
     15c:	018b      	lsls	r3, r1, #6
     15e:	1ac0      	subs	r0, r0, r3
     160:	4152      	adcs	r2, r2
     162:	0943      	lsrs	r3, r0, #5
     164:	428b      	cmp	r3, r1
     166:	d301      	bcc.n	16c <__udivsi3+0xc0>
     168:	014b      	lsls	r3, r1, #5
     16a:	1ac0      	subs	r0, r0, r3
     16c:	4152      	adcs	r2, r2
     16e:	0903      	lsrs	r3, r0, #4
     170:	428b      	cmp	r3, r1
     172:	d301      	bcc.n	178 <__udivsi3+0xcc>
     174:	010b      	lsls	r3, r1, #4
     176:	1ac0      	subs	r0, r0, r3
     178:	4152      	adcs	r2, r2
     17a:	08c3      	lsrs	r3, r0, #3
     17c:	428b      	cmp	r3, r1
     17e:	d301      	bcc.n	184 <__udivsi3+0xd8>
     180:	00cb      	lsls	r3, r1, #3
     182:	1ac0      	subs	r0, r0, r3
     184:	4152      	adcs	r2, r2
     186:	0883      	lsrs	r3, r0, #2
     188:	428b      	cmp	r3, r1
     18a:	d301      	bcc.n	190 <__udivsi3+0xe4>
     18c:	008b      	lsls	r3, r1, #2
     18e:	1ac0      	subs	r0, r0, r3
     190:	4152      	adcs	r2, r2
     192:	0843      	lsrs	r3, r0, #1
     194:	428b      	cmp	r3, r1
     196:	d301      	bcc.n	19c <__udivsi3+0xf0>
     198:	004b      	lsls	r3, r1, #1
     19a:	1ac0      	subs	r0, r0, r3
     19c:	4152      	adcs	r2, r2
     19e:	1a41      	subs	r1, r0, r1
     1a0:	d200      	bcs.n	1a4 <__udivsi3+0xf8>
     1a2:	4601      	mov	r1, r0
     1a4:	4152      	adcs	r2, r2
     1a6:	4610      	mov	r0, r2
     1a8:	4770      	bx	lr
     1aa:	e7ff      	b.n	1ac <__udivsi3+0x100>
     1ac:	b501      	push	{r0, lr}
     1ae:	2000      	movs	r0, #0
     1b0:	f000 f806 	bl	1c0 <__aeabi_idiv0>
     1b4:	bd02      	pop	{r1, pc}
     1b6:	46c0      	nop			; (mov r8, r8)

000001b8 <__aeabi_uidivmod>:
     1b8:	2900      	cmp	r1, #0
     1ba:	d0f7      	beq.n	1ac <__udivsi3+0x100>
     1bc:	e776      	b.n	ac <__udivsi3>
     1be:	4770      	bx	lr

000001c0 <__aeabi_idiv0>:
     1c0:	4770      	bx	lr
     1c2:	46c0      	nop			; (mov r8, r8)

000001c4 <reset_handler>:
     1c4:	480d      	ldr	r0, [pc, #52]	; (1fc <LoopForever+0x2>)
     1c6:	4685      	mov	sp, r0
     1c8:	480d      	ldr	r0, [pc, #52]	; (200 <_Min_Heap_Size>)
     1ca:	490e      	ldr	r1, [pc, #56]	; (204 <_Min_Heap_Size+0x4>)
     1cc:	4a0e      	ldr	r2, [pc, #56]	; (208 <_Min_Heap_Size+0x8>)
     1ce:	2300      	movs	r3, #0
     1d0:	e002      	b.n	1d8 <LoopCopyDataInit>

000001d2 <CopyDataInit>:
     1d2:	58d4      	ldr	r4, [r2, r3]
     1d4:	50c4      	str	r4, [r0, r3]
     1d6:	3304      	adds	r3, #4

000001d8 <LoopCopyDataInit>:
     1d8:	18c4      	adds	r4, r0, r3
     1da:	428c      	cmp	r4, r1
     1dc:	d3f9      	bcc.n	1d2 <CopyDataInit>
     1de:	4a0b      	ldr	r2, [pc, #44]	; (20c <_Min_Heap_Size+0xc>)
     1e0:	4c0b      	ldr	r4, [pc, #44]	; (210 <_Min_Heap_Size+0x10>)
     1e2:	2300      	movs	r3, #0
     1e4:	e001      	b.n	1ea <LoopFillZerobss>

000001e6 <FillZerobss>:
     1e6:	6013      	str	r3, [r2, #0]
     1e8:	3204      	adds	r2, #4

000001ea <LoopFillZerobss>:
     1ea:	42a2      	cmp	r2, r4
     1ec:	d3fb      	bcc.n	1e6 <FillZerobss>
     1ee:	f000 f8b5 	bl	35c <SystemInit>
     1f2:	f000 f8c7 	bl	384 <__libc_init_array>
     1f6:	f000 f8b7 	bl	368 <main>

000001fa <LoopForever>:
     1fa:	e7fe      	b.n	1fa <LoopForever>
     1fc:	20001000 	andcs	r1, r0, r0
     200:	20000000 	andcs	r0, r0, r0
     204:	20000064 	andcs	r0, r0, r4, rrx
     208:	000013f0 	strdeq	r1, [r0], -r0
     20c:	20000064 	andcs	r0, r0, r4, rrx
     210:	20000094 	mulcs	r0, r4, r0

00000214 <hardfault_handler>:
     214:	2004      	movs	r0, #4
     216:	4671      	mov	r1, lr
     218:	4208      	tst	r0, r1
     21a:	d002      	beq.n	222 <stacking_used_MSP>
     21c:	f3ef 8009 	mrs	r0, PSP
     220:	e001      	b.n	226 <get_LR_and_branch>

00000222 <stacking_used_MSP>:
     222:	f3ef 8008 	mrs	r0, MSP

00000226 <get_LR_and_branch>:
     226:	4770      	bx	lr

00000228 <nmi_handler>:
     228:	e7f4      	b.n	214 <hardfault_handler>

0000022a <memmanage_handler>:
     22a:	e7f3      	b.n	214 <hardfault_handler>

0000022c <busfault_handler>:
     22c:	e7f2      	b.n	214 <hardfault_handler>

0000022e <usagefault_handler>:
     22e:	e7f1      	b.n	214 <hardfault_handler>

00000230 <svc_handler>:
     230:	e7f0      	b.n	214 <hardfault_handler>

00000232 <debugmon_handler>:
     232:	e7ef      	b.n	214 <hardfault_handler>

00000234 <pendsv_handler>:
     234:	e7ee      	b.n	214 <hardfault_handler>

00000236 <systick_handler>:
     236:	e7ed      	b.n	214 <hardfault_handler>
     238:	e7ee      	b.n	218 <hardfault_handler+0x4>
	...

0000023c <tee_interrupt_handler>:
     23c:	b500      	push	{lr}
     23e:	4804      	ldr	r0, [pc, #16]	; (250 <tee_interrupt_handler+0x14>)
     240:	4904      	ldr	r1, [pc, #16]	; (254 <tee_interrupt_handler+0x18>)
     242:	6001      	str	r1, [r0, #0]
     244:	f000 f88c 	bl	360 <__tee_entry>
     248:	4803      	ldr	r0, [pc, #12]	; (258 <tee_interrupt_handler+0x1c>)
     24a:	4904      	ldr	r1, [pc, #16]	; (25c <tee_interrupt_handler+0x20>)
     24c:	6001      	str	r1, [r0, #0]
     24e:	bd00      	pop	{pc}
     250:	44a000f8 	strtmi	r0, [r0], #248	; 0xf8
     254:	00000000 	andeq	r0, r0, r0
     258:	44a000fc 	strtmi	r0, [r0], #252	; 0xfc
     25c:	00000001 	andeq	r0, r0, r1

00000260 <_read>:
     260:	b086      	sub	sp, #24
     262:	9003      	str	r0, [sp, #12]
     264:	9102      	str	r1, [sp, #8]
     266:	9201      	str	r2, [sp, #4]
     268:	2300      	movs	r3, #0
     26a:	9305      	str	r3, [sp, #20]
     26c:	e002      	b.n	274 <_read+0x14>
     26e:	9b05      	ldr	r3, [sp, #20]
     270:	3301      	adds	r3, #1
     272:	9305      	str	r3, [sp, #20]
     274:	9a05      	ldr	r2, [sp, #20]
     276:	9b01      	ldr	r3, [sp, #4]
     278:	429a      	cmp	r2, r3
     27a:	dbf8      	blt.n	26e <_read+0xe>
     27c:	9b01      	ldr	r3, [sp, #4]
     27e:	0018      	movs	r0, r3
     280:	b006      	add	sp, #24
     282:	4770      	bx	lr

00000284 <_write>:
     284:	b500      	push	{lr}
     286:	b087      	sub	sp, #28
     288:	9003      	str	r0, [sp, #12]
     28a:	9102      	str	r1, [sp, #8]
     28c:	9201      	str	r2, [sp, #4]
     28e:	2300      	movs	r3, #0
     290:	9305      	str	r3, [sp, #20]
     292:	e009      	b.n	2a8 <_write+0x24>
     294:	9b02      	ldr	r3, [sp, #8]
     296:	1c5a      	adds	r2, r3, #1
     298:	9202      	str	r2, [sp, #8]
     29a:	781b      	ldrb	r3, [r3, #0]
     29c:	0018      	movs	r0, r3
     29e:	f000 f83d 	bl	31c <uartlite_putchar>
     2a2:	9b05      	ldr	r3, [sp, #20]
     2a4:	3301      	adds	r3, #1
     2a6:	9305      	str	r3, [sp, #20]
     2a8:	9a05      	ldr	r2, [sp, #20]
     2aa:	9b01      	ldr	r3, [sp, #4]
     2ac:	429a      	cmp	r2, r3
     2ae:	dbf1      	blt.n	294 <_write+0x10>
     2b0:	9b01      	ldr	r3, [sp, #4]
     2b2:	0018      	movs	r0, r3
     2b4:	b007      	add	sp, #28
     2b6:	bd00      	pop	{pc}

000002b8 <_close>:
     2b8:	b082      	sub	sp, #8
     2ba:	9001      	str	r0, [sp, #4]
     2bc:	2301      	movs	r3, #1
     2be:	425b      	negs	r3, r3
     2c0:	0018      	movs	r0, r3
     2c2:	b002      	add	sp, #8
     2c4:	4770      	bx	lr

000002c6 <_fstat>:
     2c6:	b082      	sub	sp, #8
     2c8:	9001      	str	r0, [sp, #4]
     2ca:	9100      	str	r1, [sp, #0]
     2cc:	9b00      	ldr	r3, [sp, #0]
     2ce:	2280      	movs	r2, #128	; 0x80
     2d0:	0192      	lsls	r2, r2, #6
     2d2:	605a      	str	r2, [r3, #4]
     2d4:	2300      	movs	r3, #0
     2d6:	0018      	movs	r0, r3
     2d8:	b002      	add	sp, #8
     2da:	4770      	bx	lr

000002dc <_isatty>:
     2dc:	b082      	sub	sp, #8
     2de:	9001      	str	r0, [sp, #4]
     2e0:	2301      	movs	r3, #1
     2e2:	0018      	movs	r0, r3
     2e4:	b002      	add	sp, #8
     2e6:	4770      	bx	lr

000002e8 <_lseek>:
     2e8:	b084      	sub	sp, #16
     2ea:	9003      	str	r0, [sp, #12]
     2ec:	9102      	str	r1, [sp, #8]
     2ee:	9201      	str	r2, [sp, #4]
     2f0:	2300      	movs	r3, #0
     2f2:	0018      	movs	r0, r3
     2f4:	b004      	add	sp, #16
     2f6:	4770      	bx	lr

000002f8 <read32>:
     2f8:	b082      	sub	sp, #8
     2fa:	9001      	str	r0, [sp, #4]
     2fc:	9b01      	ldr	r3, [sp, #4]
     2fe:	681b      	ldr	r3, [r3, #0]
     300:	0018      	movs	r0, r3
     302:	b002      	add	sp, #8
     304:	4770      	bx	lr

00000306 <write32>:
     306:	b084      	sub	sp, #16
     308:	9001      	str	r0, [sp, #4]
     30a:	9100      	str	r1, [sp, #0]
     30c:	9b01      	ldr	r3, [sp, #4]
     30e:	9303      	str	r3, [sp, #12]
     310:	9b03      	ldr	r3, [sp, #12]
     312:	9a00      	ldr	r2, [sp, #0]
     314:	601a      	str	r2, [r3, #0]
     316:	46c0      	nop			; (mov r8, r8)
     318:	b004      	add	sp, #16
     31a:	4770      	bx	lr

0000031c <uartlite_putchar>:
     31c:	b500      	push	{lr}
     31e:	b083      	sub	sp, #12
     320:	0002      	movs	r2, r0
     322:	466b      	mov	r3, sp
     324:	3307      	adds	r3, #7
     326:	701a      	strb	r2, [r3, #0]
     328:	46c0      	nop			; (mov r8, r8)
     32a:	4b0a      	ldr	r3, [pc, #40]	; (354 <uartlite_putchar+0x38>)
     32c:	0018      	movs	r0, r3
     32e:	f7ff ffe3 	bl	2f8 <read32>
     332:	0003      	movs	r3, r0
     334:	2208      	movs	r2, #8
     336:	4013      	ands	r3, r2
     338:	2b08      	cmp	r3, #8
     33a:	d0f6      	beq.n	32a <uartlite_putchar+0xe>
     33c:	466b      	mov	r3, sp
     33e:	3307      	adds	r3, #7
     340:	781b      	ldrb	r3, [r3, #0]
     342:	4a05      	ldr	r2, [pc, #20]	; (358 <uartlite_putchar+0x3c>)
     344:	0019      	movs	r1, r3
     346:	0010      	movs	r0, r2
     348:	f7ff ffdd 	bl	306 <write32>
     34c:	2301      	movs	r3, #1
     34e:	0018      	movs	r0, r3
     350:	b003      	add	sp, #12
     352:	bd00      	pop	{pc}
     354:	40600008 	rsbmi	r0, r0, r8
     358:	40600004 	rsbmi	r0, r0, r4

0000035c <SystemInit>:
     35c:	46c0      	nop			; (mov r8, r8)
     35e:	4770      	bx	lr

00000360 <__tee_entry>:
     360:	2300      	movs	r3, #0
     362:	0018      	movs	r0, r3
     364:	4770      	bx	lr
	...

00000368 <main>:
     368:	b500      	push	{lr}
     36a:	b083      	sub	sp, #12
     36c:	2300      	movs	r3, #0
     36e:	9301      	str	r3, [sp, #4]
     370:	4b03      	ldr	r3, [pc, #12]	; (380 <main+0x18>)
     372:	0018      	movs	r0, r3
     374:	f000 f832 	bl	3dc <iprintf>
     378:	0003      	movs	r3, r0
     37a:	9300      	str	r3, [sp, #0]
     37c:	e7fe      	b.n	37c <main+0x14>
     37e:	46c0      	nop			; (mov r8, r8)
     380:	0000134c 	andeq	r1, r0, ip, asr #6

00000384 <__libc_init_array>:
     384:	b570      	push	{r4, r5, r6, lr}
     386:	2600      	movs	r6, #0
     388:	4d0c      	ldr	r5, [pc, #48]	; (3bc <__libc_init_array+0x38>)
     38a:	4c0d      	ldr	r4, [pc, #52]	; (3c0 <__libc_init_array+0x3c>)
     38c:	1b64      	subs	r4, r4, r5
     38e:	10a4      	asrs	r4, r4, #2
     390:	42a6      	cmp	r6, r4
     392:	d109      	bne.n	3a8 <__libc_init_array+0x24>
     394:	2600      	movs	r6, #0
     396:	f000 ffcd 	bl	1334 <_init>
     39a:	4d0a      	ldr	r5, [pc, #40]	; (3c4 <__libc_init_array+0x40>)
     39c:	4c0a      	ldr	r4, [pc, #40]	; (3c8 <__libc_init_array+0x44>)
     39e:	1b64      	subs	r4, r4, r5
     3a0:	10a4      	asrs	r4, r4, #2
     3a2:	42a6      	cmp	r6, r4
     3a4:	d105      	bne.n	3b2 <__libc_init_array+0x2e>
     3a6:	bd70      	pop	{r4, r5, r6, pc}
     3a8:	00b3      	lsls	r3, r6, #2
     3aa:	58eb      	ldr	r3, [r5, r3]
     3ac:	4798      	blx	r3
     3ae:	3601      	adds	r6, #1
     3b0:	e7ee      	b.n	390 <__libc_init_array+0xc>
     3b2:	00b3      	lsls	r3, r6, #2
     3b4:	58eb      	ldr	r3, [r5, r3]
     3b6:	4798      	blx	r3
     3b8:	3601      	adds	r6, #1
     3ba:	e7f2      	b.n	3a2 <__libc_init_array+0x1e>
     3bc:	000013e8 	andeq	r1, r0, r8, ror #7
     3c0:	000013e8 	andeq	r1, r0, r8, ror #7
     3c4:	000013e8 	andeq	r1, r0, r8, ror #7
     3c8:	000013ec 	andeq	r1, r0, ip, ror #7

000003cc <memset>:
     3cc:	0003      	movs	r3, r0
     3ce:	1882      	adds	r2, r0, r2
     3d0:	4293      	cmp	r3, r2
     3d2:	d100      	bne.n	3d6 <memset+0xa>
     3d4:	4770      	bx	lr
     3d6:	7019      	strb	r1, [r3, #0]
     3d8:	3301      	adds	r3, #1
     3da:	e7f9      	b.n	3d0 <memset+0x4>

000003dc <iprintf>:
     3dc:	b40f      	push	{r0, r1, r2, r3}
     3de:	4b0b      	ldr	r3, [pc, #44]	; (40c <_Min_Stack_Size+0xc>)
     3e0:	b513      	push	{r0, r1, r4, lr}
     3e2:	681c      	ldr	r4, [r3, #0]
     3e4:	2c00      	cmp	r4, #0
     3e6:	d005      	beq.n	3f4 <iprintf+0x18>
     3e8:	69a3      	ldr	r3, [r4, #24]
     3ea:	2b00      	cmp	r3, #0
     3ec:	d102      	bne.n	3f4 <iprintf+0x18>
     3ee:	0020      	movs	r0, r4
     3f0:	f000 f870 	bl	4d4 <__sinit>
     3f4:	ab05      	add	r3, sp, #20
     3f6:	0020      	movs	r0, r4
     3f8:	9a04      	ldr	r2, [sp, #16]
     3fa:	68a1      	ldr	r1, [r4, #8]
     3fc:	9301      	str	r3, [sp, #4]
     3fe:	f000 f993 	bl	728 <_vfiprintf_r>
     402:	bc16      	pop	{r1, r2, r4}
     404:	bc08      	pop	{r3}
     406:	b004      	add	sp, #16
     408:	4718      	bx	r3
     40a:	46c0      	nop			; (mov r8, r8)
     40c:	20000000 	andcs	r0, r0, r0

00000410 <std>:
     410:	2300      	movs	r3, #0
     412:	b510      	push	{r4, lr}
     414:	0004      	movs	r4, r0
     416:	6003      	str	r3, [r0, #0]
     418:	6043      	str	r3, [r0, #4]
     41a:	6083      	str	r3, [r0, #8]
     41c:	8181      	strh	r1, [r0, #12]
     41e:	6643      	str	r3, [r0, #100]	; 0x64
     420:	0019      	movs	r1, r3
     422:	81c2      	strh	r2, [r0, #14]
     424:	6103      	str	r3, [r0, #16]
     426:	6143      	str	r3, [r0, #20]
     428:	6183      	str	r3, [r0, #24]
     42a:	2208      	movs	r2, #8
     42c:	305c      	adds	r0, #92	; 0x5c
     42e:	f7ff ffcd 	bl	3cc <memset>
     432:	4b05      	ldr	r3, [pc, #20]	; (448 <std+0x38>)
     434:	6224      	str	r4, [r4, #32]
     436:	6263      	str	r3, [r4, #36]	; 0x24
     438:	4b04      	ldr	r3, [pc, #16]	; (44c <std+0x3c>)
     43a:	62a3      	str	r3, [r4, #40]	; 0x28
     43c:	4b04      	ldr	r3, [pc, #16]	; (450 <std+0x40>)
     43e:	62e3      	str	r3, [r4, #44]	; 0x2c
     440:	4b04      	ldr	r3, [pc, #16]	; (454 <std+0x44>)
     442:	6323      	str	r3, [r4, #48]	; 0x30
     444:	bd10      	pop	{r4, pc}
     446:	46c0      	nop			; (mov r8, r8)
     448:	00000cc5 	andeq	r0, r0, r5, asr #25
     44c:	00000ced 	andeq	r0, r0, sp, ror #25
     450:	00000d25 	andeq	r0, r0, r5, lsr #26
     454:	00000d51 	andeq	r0, r0, r1, asr sp

00000458 <_cleanup_r>:
     458:	b510      	push	{r4, lr}
     45a:	4902      	ldr	r1, [pc, #8]	; (464 <_cleanup_r+0xc>)
     45c:	f000 f8ba 	bl	5d4 <_fwalk_reent>
     460:	bd10      	pop	{r4, pc}
     462:	46c0      	nop			; (mov r8, r8)
     464:	0000105d 	andeq	r1, r0, sp, asr r0

00000468 <__sfmoreglue>:
     468:	b570      	push	{r4, r5, r6, lr}
     46a:	2568      	movs	r5, #104	; 0x68
     46c:	1e4a      	subs	r2, r1, #1
     46e:	4355      	muls	r5, r2
     470:	000e      	movs	r6, r1
     472:	0029      	movs	r1, r5
     474:	3174      	adds	r1, #116	; 0x74
     476:	f000 f8d1 	bl	61c <_malloc_r>
     47a:	1e04      	subs	r4, r0, #0
     47c:	d008      	beq.n	490 <__sfmoreglue+0x28>
     47e:	2100      	movs	r1, #0
     480:	002a      	movs	r2, r5
     482:	6001      	str	r1, [r0, #0]
     484:	6046      	str	r6, [r0, #4]
     486:	300c      	adds	r0, #12
     488:	60a0      	str	r0, [r4, #8]
     48a:	3268      	adds	r2, #104	; 0x68
     48c:	f7ff ff9e 	bl	3cc <memset>
     490:	0020      	movs	r0, r4
     492:	bd70      	pop	{r4, r5, r6, pc}

00000494 <__sfp_lock_acquire>:
     494:	b510      	push	{r4, lr}
     496:	4802      	ldr	r0, [pc, #8]	; (4a0 <__sfp_lock_acquire+0xc>)
     498:	f000 f8bd 	bl	616 <__retarget_lock_acquire_recursive>
     49c:	bd10      	pop	{r4, pc}
     49e:	46c0      	nop			; (mov r8, r8)
     4a0:	20000081 	andcs	r0, r0, r1, lsl #1

000004a4 <__sfp_lock_release>:
     4a4:	b510      	push	{r4, lr}
     4a6:	4802      	ldr	r0, [pc, #8]	; (4b0 <__sfp_lock_release+0xc>)
     4a8:	f000 f8b6 	bl	618 <__retarget_lock_release_recursive>
     4ac:	bd10      	pop	{r4, pc}
     4ae:	46c0      	nop			; (mov r8, r8)
     4b0:	20000081 	andcs	r0, r0, r1, lsl #1

000004b4 <__sinit_lock_acquire>:
     4b4:	b510      	push	{r4, lr}
     4b6:	4802      	ldr	r0, [pc, #8]	; (4c0 <__sinit_lock_acquire+0xc>)
     4b8:	f000 f8ad 	bl	616 <__retarget_lock_acquire_recursive>
     4bc:	bd10      	pop	{r4, pc}
     4be:	46c0      	nop			; (mov r8, r8)
     4c0:	20000082 	andcs	r0, r0, r2, lsl #1

000004c4 <__sinit_lock_release>:
     4c4:	b510      	push	{r4, lr}
     4c6:	4802      	ldr	r0, [pc, #8]	; (4d0 <__sinit_lock_release+0xc>)
     4c8:	f000 f8a6 	bl	618 <__retarget_lock_release_recursive>
     4cc:	bd10      	pop	{r4, pc}
     4ce:	46c0      	nop			; (mov r8, r8)
     4d0:	20000082 	andcs	r0, r0, r2, lsl #1

000004d4 <__sinit>:
     4d4:	b513      	push	{r0, r1, r4, lr}
     4d6:	0004      	movs	r4, r0
     4d8:	f7ff ffec 	bl	4b4 <__sinit_lock_acquire>
     4dc:	69a3      	ldr	r3, [r4, #24]
     4de:	2b00      	cmp	r3, #0
     4e0:	d002      	beq.n	4e8 <__sinit+0x14>
     4e2:	f7ff ffef 	bl	4c4 <__sinit_lock_release>
     4e6:	bd13      	pop	{r0, r1, r4, pc}
     4e8:	64a3      	str	r3, [r4, #72]	; 0x48
     4ea:	64e3      	str	r3, [r4, #76]	; 0x4c
     4ec:	6523      	str	r3, [r4, #80]	; 0x50
     4ee:	4b13      	ldr	r3, [pc, #76]	; (53c <__sinit+0x68>)
     4f0:	4a13      	ldr	r2, [pc, #76]	; (540 <__sinit+0x6c>)
     4f2:	681b      	ldr	r3, [r3, #0]
     4f4:	62a2      	str	r2, [r4, #40]	; 0x28
     4f6:	9301      	str	r3, [sp, #4]
     4f8:	42a3      	cmp	r3, r4
     4fa:	d101      	bne.n	500 <__sinit+0x2c>
     4fc:	2301      	movs	r3, #1
     4fe:	61a3      	str	r3, [r4, #24]
     500:	0020      	movs	r0, r4
     502:	f000 f81f 	bl	544 <__sfp>
     506:	6060      	str	r0, [r4, #4]
     508:	0020      	movs	r0, r4
     50a:	f000 f81b 	bl	544 <__sfp>
     50e:	60a0      	str	r0, [r4, #8]
     510:	0020      	movs	r0, r4
     512:	f000 f817 	bl	544 <__sfp>
     516:	2200      	movs	r2, #0
     518:	2104      	movs	r1, #4
     51a:	60e0      	str	r0, [r4, #12]
     51c:	6860      	ldr	r0, [r4, #4]
     51e:	f7ff ff77 	bl	410 <std>
     522:	2201      	movs	r2, #1
     524:	2109      	movs	r1, #9
     526:	68a0      	ldr	r0, [r4, #8]
     528:	f7ff ff72 	bl	410 <std>
     52c:	2202      	movs	r2, #2
     52e:	2112      	movs	r1, #18
     530:	68e0      	ldr	r0, [r4, #12]
     532:	f7ff ff6d 	bl	410 <std>
     536:	2301      	movs	r3, #1
     538:	61a3      	str	r3, [r4, #24]
     53a:	e7d2      	b.n	4e2 <__sinit+0xe>
     53c:	00001350 	andeq	r1, r0, r0, asr r3
     540:	00000459 	andeq	r0, r0, r9, asr r4

00000544 <__sfp>:
     544:	b5f8      	push	{r3, r4, r5, r6, r7, lr}
     546:	0007      	movs	r7, r0
     548:	f7ff ffa4 	bl	494 <__sfp_lock_acquire>
     54c:	4b1f      	ldr	r3, [pc, #124]	; (5cc <__sfp+0x88>)
     54e:	681e      	ldr	r6, [r3, #0]
     550:	69b3      	ldr	r3, [r6, #24]
     552:	2b00      	cmp	r3, #0
     554:	d102      	bne.n	55c <__sfp+0x18>
     556:	0030      	movs	r0, r6
     558:	f7ff ffbc 	bl	4d4 <__sinit>
     55c:	3648      	adds	r6, #72	; 0x48
     55e:	68b4      	ldr	r4, [r6, #8]
     560:	6873      	ldr	r3, [r6, #4]
     562:	3b01      	subs	r3, #1
     564:	d504      	bpl.n	570 <__sfp+0x2c>
     566:	6833      	ldr	r3, [r6, #0]
     568:	2b00      	cmp	r3, #0
     56a:	d022      	beq.n	5b2 <__sfp+0x6e>
     56c:	6836      	ldr	r6, [r6, #0]
     56e:	e7f6      	b.n	55e <__sfp+0x1a>
     570:	220c      	movs	r2, #12
     572:	5ea5      	ldrsh	r5, [r4, r2]
     574:	2d00      	cmp	r5, #0
     576:	d11a      	bne.n	5ae <__sfp+0x6a>
     578:	0020      	movs	r0, r4
     57a:	4b15      	ldr	r3, [pc, #84]	; (5d0 <__sfp+0x8c>)
     57c:	3058      	adds	r0, #88	; 0x58
     57e:	60e3      	str	r3, [r4, #12]
     580:	6665      	str	r5, [r4, #100]	; 0x64
     582:	f000 f847 	bl	614 <__retarget_lock_init_recursive>
     586:	f7ff ff8d 	bl	4a4 <__sfp_lock_release>
     58a:	0020      	movs	r0, r4
     58c:	2208      	movs	r2, #8
     58e:	0029      	movs	r1, r5
     590:	6025      	str	r5, [r4, #0]
     592:	60a5      	str	r5, [r4, #8]
     594:	6065      	str	r5, [r4, #4]
     596:	6125      	str	r5, [r4, #16]
     598:	6165      	str	r5, [r4, #20]
     59a:	61a5      	str	r5, [r4, #24]
     59c:	305c      	adds	r0, #92	; 0x5c
     59e:	f7ff ff15 	bl	3cc <memset>
     5a2:	6365      	str	r5, [r4, #52]	; 0x34
     5a4:	63a5      	str	r5, [r4, #56]	; 0x38
     5a6:	64a5      	str	r5, [r4, #72]	; 0x48
     5a8:	64e5      	str	r5, [r4, #76]	; 0x4c
     5aa:	0020      	movs	r0, r4
     5ac:	bdf8      	pop	{r3, r4, r5, r6, r7, pc}
     5ae:	3468      	adds	r4, #104	; 0x68
     5b0:	e7d7      	b.n	562 <__sfp+0x1e>
     5b2:	2104      	movs	r1, #4
     5b4:	0038      	movs	r0, r7
     5b6:	f7ff ff57 	bl	468 <__sfmoreglue>
     5ba:	1e04      	subs	r4, r0, #0
     5bc:	6030      	str	r0, [r6, #0]
     5be:	d1d5      	bne.n	56c <__sfp+0x28>
     5c0:	f7ff ff70 	bl	4a4 <__sfp_lock_release>
     5c4:	230c      	movs	r3, #12
     5c6:	603b      	str	r3, [r7, #0]
     5c8:	e7ef      	b.n	5aa <__sfp+0x66>
     5ca:	46c0      	nop			; (mov r8, r8)
     5cc:	00001350 	andeq	r1, r0, r0, asr r3
     5d0:	ffff0001 			; <UNDEFINED> instruction: 0xffff0001

000005d4 <_fwalk_reent>:
     5d4:	b5f7      	push	{r0, r1, r2, r4, r5, r6, r7, lr}
     5d6:	0004      	movs	r4, r0
     5d8:	0006      	movs	r6, r0
     5da:	2700      	movs	r7, #0
     5dc:	9101      	str	r1, [sp, #4]
     5de:	3448      	adds	r4, #72	; 0x48
     5e0:	6863      	ldr	r3, [r4, #4]
     5e2:	68a5      	ldr	r5, [r4, #8]
     5e4:	9300      	str	r3, [sp, #0]
     5e6:	9b00      	ldr	r3, [sp, #0]
     5e8:	3b01      	subs	r3, #1
     5ea:	9300      	str	r3, [sp, #0]
     5ec:	d504      	bpl.n	5f8 <_fwalk_reent+0x24>
     5ee:	6824      	ldr	r4, [r4, #0]
     5f0:	2c00      	cmp	r4, #0
     5f2:	d1f5      	bne.n	5e0 <_fwalk_reent+0xc>
     5f4:	0038      	movs	r0, r7
     5f6:	bdfe      	pop	{r1, r2, r3, r4, r5, r6, r7, pc}
     5f8:	89ab      	ldrh	r3, [r5, #12]
     5fa:	2b01      	cmp	r3, #1
     5fc:	d908      	bls.n	610 <_fwalk_reent+0x3c>
     5fe:	220e      	movs	r2, #14
     600:	5eab      	ldrsh	r3, [r5, r2]
     602:	3301      	adds	r3, #1
     604:	d004      	beq.n	610 <_fwalk_reent+0x3c>
     606:	0029      	movs	r1, r5
     608:	0030      	movs	r0, r6
     60a:	9b01      	ldr	r3, [sp, #4]
     60c:	4798      	blx	r3
     60e:	4307      	orrs	r7, r0
     610:	3568      	adds	r5, #104	; 0x68
     612:	e7e8      	b.n	5e6 <_fwalk_reent+0x12>

00000614 <__retarget_lock_init_recursive>:
     614:	4770      	bx	lr

00000616 <__retarget_lock_acquire_recursive>:
     616:	4770      	bx	lr

00000618 <__retarget_lock_release_recursive>:
     618:	4770      	bx	lr
	...

0000061c <_malloc_r>:
     61c:	b5f8      	push	{r3, r4, r5, r6, r7, lr}
     61e:	2303      	movs	r3, #3
     620:	1ccd      	adds	r5, r1, #3
     622:	439d      	bics	r5, r3
     624:	3508      	adds	r5, #8
     626:	0006      	movs	r6, r0
     628:	2d0c      	cmp	r5, #12
     62a:	d21f      	bcs.n	66c <_malloc_r+0x50>
     62c:	250c      	movs	r5, #12
     62e:	42a9      	cmp	r1, r5
     630:	d81e      	bhi.n	670 <_malloc_r+0x54>
     632:	0030      	movs	r0, r6
     634:	f000 fdde 	bl	11f4 <__malloc_lock>
     638:	4925      	ldr	r1, [pc, #148]	; (6d0 <_malloc_r+0xb4>)
     63a:	680a      	ldr	r2, [r1, #0]
     63c:	0014      	movs	r4, r2
     63e:	2c00      	cmp	r4, #0
     640:	d11a      	bne.n	678 <_malloc_r+0x5c>
     642:	4f24      	ldr	r7, [pc, #144]	; (6d4 <_malloc_r+0xb8>)
     644:	683b      	ldr	r3, [r7, #0]
     646:	2b00      	cmp	r3, #0
     648:	d104      	bne.n	654 <_malloc_r+0x38>
     64a:	0021      	movs	r1, r4
     64c:	0030      	movs	r0, r6
     64e:	f000 fb27 	bl	ca0 <_sbrk_r>
     652:	6038      	str	r0, [r7, #0]
     654:	0029      	movs	r1, r5
     656:	0030      	movs	r0, r6
     658:	f000 fb22 	bl	ca0 <_sbrk_r>
     65c:	1c43      	adds	r3, r0, #1
     65e:	d12b      	bne.n	6b8 <_malloc_r+0x9c>
     660:	230c      	movs	r3, #12
     662:	0030      	movs	r0, r6
     664:	6033      	str	r3, [r6, #0]
     666:	f000 fdcd 	bl	1204 <__malloc_unlock>
     66a:	e003      	b.n	674 <_malloc_r+0x58>
     66c:	2d00      	cmp	r5, #0
     66e:	dade      	bge.n	62e <_malloc_r+0x12>
     670:	230c      	movs	r3, #12
     672:	6033      	str	r3, [r6, #0]
     674:	2000      	movs	r0, #0
     676:	bdf8      	pop	{r3, r4, r5, r6, r7, pc}
     678:	6823      	ldr	r3, [r4, #0]
     67a:	1b5b      	subs	r3, r3, r5
     67c:	d419      	bmi.n	6b2 <_malloc_r+0x96>
     67e:	2b0b      	cmp	r3, #11
     680:	d903      	bls.n	68a <_malloc_r+0x6e>
     682:	6023      	str	r3, [r4, #0]
     684:	18e4      	adds	r4, r4, r3
     686:	6025      	str	r5, [r4, #0]
     688:	e003      	b.n	692 <_malloc_r+0x76>
     68a:	6863      	ldr	r3, [r4, #4]
     68c:	42a2      	cmp	r2, r4
     68e:	d10e      	bne.n	6ae <_malloc_r+0x92>
     690:	600b      	str	r3, [r1, #0]
     692:	0030      	movs	r0, r6
     694:	f000 fdb6 	bl	1204 <__malloc_unlock>
     698:	0020      	movs	r0, r4
     69a:	2207      	movs	r2, #7
     69c:	300b      	adds	r0, #11
     69e:	1d23      	adds	r3, r4, #4
     6a0:	4390      	bics	r0, r2
     6a2:	1ac2      	subs	r2, r0, r3
     6a4:	4298      	cmp	r0, r3
     6a6:	d0e6      	beq.n	676 <_malloc_r+0x5a>
     6a8:	1a1b      	subs	r3, r3, r0
     6aa:	50a3      	str	r3, [r4, r2]
     6ac:	e7e3      	b.n	676 <_malloc_r+0x5a>
     6ae:	6053      	str	r3, [r2, #4]
     6b0:	e7ef      	b.n	692 <_malloc_r+0x76>
     6b2:	0022      	movs	r2, r4
     6b4:	6864      	ldr	r4, [r4, #4]
     6b6:	e7c2      	b.n	63e <_malloc_r+0x22>
     6b8:	2303      	movs	r3, #3
     6ba:	1cc4      	adds	r4, r0, #3
     6bc:	439c      	bics	r4, r3
     6be:	42a0      	cmp	r0, r4
     6c0:	d0e1      	beq.n	686 <_malloc_r+0x6a>
     6c2:	1a21      	subs	r1, r4, r0
     6c4:	0030      	movs	r0, r6
     6c6:	f000 faeb 	bl	ca0 <_sbrk_r>
     6ca:	1c43      	adds	r3, r0, #1
     6cc:	d1db      	bne.n	686 <_malloc_r+0x6a>
     6ce:	e7c7      	b.n	660 <_malloc_r+0x44>
     6d0:	20000084 	andcs	r0, r0, r4, lsl #1
     6d4:	20000088 	andcs	r0, r0, r8, lsl #1

000006d8 <__sfputc_r>:
     6d8:	6893      	ldr	r3, [r2, #8]
     6da:	b510      	push	{r4, lr}
     6dc:	3b01      	subs	r3, #1
     6de:	6093      	str	r3, [r2, #8]
     6e0:	2b00      	cmp	r3, #0
     6e2:	da04      	bge.n	6ee <__sfputc_r+0x16>
     6e4:	6994      	ldr	r4, [r2, #24]
     6e6:	42a3      	cmp	r3, r4
     6e8:	db07      	blt.n	6fa <__sfputc_r+0x22>
     6ea:	290a      	cmp	r1, #10
     6ec:	d005      	beq.n	6fa <__sfputc_r+0x22>
     6ee:	6813      	ldr	r3, [r2, #0]
     6f0:	1c58      	adds	r0, r3, #1
     6f2:	6010      	str	r0, [r2, #0]
     6f4:	7019      	strb	r1, [r3, #0]
     6f6:	0008      	movs	r0, r1
     6f8:	bd10      	pop	{r4, pc}
     6fa:	f000 fb2f 	bl	d5c <__swbuf_r>
     6fe:	0001      	movs	r1, r0
     700:	e7f9      	b.n	6f6 <__sfputc_r+0x1e>

00000702 <__sfputs_r>:
     702:	b5f8      	push	{r3, r4, r5, r6, r7, lr}
     704:	0006      	movs	r6, r0
     706:	000f      	movs	r7, r1
     708:	0014      	movs	r4, r2
     70a:	18d5      	adds	r5, r2, r3
     70c:	42ac      	cmp	r4, r5
     70e:	d101      	bne.n	714 <__sfputs_r+0x12>
     710:	2000      	movs	r0, #0
     712:	e007      	b.n	724 <__sfputs_r+0x22>
     714:	7821      	ldrb	r1, [r4, #0]
     716:	003a      	movs	r2, r7
     718:	0030      	movs	r0, r6
     71a:	f7ff ffdd 	bl	6d8 <__sfputc_r>
     71e:	3401      	adds	r4, #1
     720:	1c43      	adds	r3, r0, #1
     722:	d1f3      	bne.n	70c <__sfputs_r+0xa>
     724:	bdf8      	pop	{r3, r4, r5, r6, r7, pc}
	...

00000728 <_vfiprintf_r>:
     728:	b5f0      	push	{r4, r5, r6, r7, lr}
     72a:	b0a1      	sub	sp, #132	; 0x84
     72c:	0006      	movs	r6, r0
     72e:	000c      	movs	r4, r1
     730:	001f      	movs	r7, r3
     732:	9203      	str	r2, [sp, #12]
     734:	2800      	cmp	r0, #0
     736:	d004      	beq.n	742 <_vfiprintf_r+0x1a>
     738:	6983      	ldr	r3, [r0, #24]
     73a:	2b00      	cmp	r3, #0
     73c:	d101      	bne.n	742 <_vfiprintf_r+0x1a>
     73e:	f7ff fec9 	bl	4d4 <__sinit>
     742:	4b8e      	ldr	r3, [pc, #568]	; (97c <_vfiprintf_r+0x254>)
     744:	429c      	cmp	r4, r3
     746:	d11c      	bne.n	782 <_vfiprintf_r+0x5a>
     748:	6874      	ldr	r4, [r6, #4]
     74a:	6e63      	ldr	r3, [r4, #100]	; 0x64
     74c:	07db      	lsls	r3, r3, #31
     74e:	d405      	bmi.n	75c <_vfiprintf_r+0x34>
     750:	89a3      	ldrh	r3, [r4, #12]
     752:	059b      	lsls	r3, r3, #22
     754:	d402      	bmi.n	75c <_vfiprintf_r+0x34>
     756:	6da0      	ldr	r0, [r4, #88]	; 0x58
     758:	f7ff ff5d 	bl	616 <__retarget_lock_acquire_recursive>
     75c:	89a3      	ldrh	r3, [r4, #12]
     75e:	071b      	lsls	r3, r3, #28
     760:	d502      	bpl.n	768 <_vfiprintf_r+0x40>
     762:	6923      	ldr	r3, [r4, #16]
     764:	2b00      	cmp	r3, #0
     766:	d11d      	bne.n	7a4 <_vfiprintf_r+0x7c>
     768:	0021      	movs	r1, r4
     76a:	0030      	movs	r0, r6
     76c:	f000 fb60 	bl	e30 <__swsetup_r>
     770:	2800      	cmp	r0, #0
     772:	d017      	beq.n	7a4 <_vfiprintf_r+0x7c>
     774:	6e63      	ldr	r3, [r4, #100]	; 0x64
     776:	07db      	lsls	r3, r3, #31
     778:	d50d      	bpl.n	796 <_vfiprintf_r+0x6e>
     77a:	2001      	movs	r0, #1
     77c:	4240      	negs	r0, r0
     77e:	b021      	add	sp, #132	; 0x84
     780:	bdf0      	pop	{r4, r5, r6, r7, pc}
     782:	4b7f      	ldr	r3, [pc, #508]	; (980 <_vfiprintf_r+0x258>)
     784:	429c      	cmp	r4, r3
     786:	d101      	bne.n	78c <_vfiprintf_r+0x64>
     788:	68b4      	ldr	r4, [r6, #8]
     78a:	e7de      	b.n	74a <_vfiprintf_r+0x22>
     78c:	4b7d      	ldr	r3, [pc, #500]	; (984 <_vfiprintf_r+0x25c>)
     78e:	429c      	cmp	r4, r3
     790:	d1db      	bne.n	74a <_vfiprintf_r+0x22>
     792:	68f4      	ldr	r4, [r6, #12]
     794:	e7d9      	b.n	74a <_vfiprintf_r+0x22>
     796:	89a3      	ldrh	r3, [r4, #12]
     798:	059b      	lsls	r3, r3, #22
     79a:	d4ee      	bmi.n	77a <_vfiprintf_r+0x52>
     79c:	6da0      	ldr	r0, [r4, #88]	; 0x58
     79e:	f7ff ff3b 	bl	618 <__retarget_lock_release_recursive>
     7a2:	e7ea      	b.n	77a <_vfiprintf_r+0x52>
     7a4:	2300      	movs	r3, #0
     7a6:	ad08      	add	r5, sp, #32
     7a8:	616b      	str	r3, [r5, #20]
     7aa:	3320      	adds	r3, #32
     7ac:	766b      	strb	r3, [r5, #25]
     7ae:	3310      	adds	r3, #16
     7b0:	76ab      	strb	r3, [r5, #26]
     7b2:	9707      	str	r7, [sp, #28]
     7b4:	9f03      	ldr	r7, [sp, #12]
     7b6:	783b      	ldrb	r3, [r7, #0]
     7b8:	2b00      	cmp	r3, #0
     7ba:	d001      	beq.n	7c0 <_vfiprintf_r+0x98>
     7bc:	2b25      	cmp	r3, #37	; 0x25
     7be:	d14e      	bne.n	85e <_vfiprintf_r+0x136>
     7c0:	9b03      	ldr	r3, [sp, #12]
     7c2:	1afb      	subs	r3, r7, r3
     7c4:	9305      	str	r3, [sp, #20]
     7c6:	9b03      	ldr	r3, [sp, #12]
     7c8:	429f      	cmp	r7, r3
     7ca:	d00d      	beq.n	7e8 <_vfiprintf_r+0xc0>
     7cc:	9b05      	ldr	r3, [sp, #20]
     7ce:	0021      	movs	r1, r4
     7d0:	0030      	movs	r0, r6
     7d2:	9a03      	ldr	r2, [sp, #12]
     7d4:	f7ff ff95 	bl	702 <__sfputs_r>
     7d8:	1c43      	adds	r3, r0, #1
     7da:	d100      	bne.n	7de <_vfiprintf_r+0xb6>
     7dc:	e0b5      	b.n	94a <_vfiprintf_r+0x222>
     7de:	696a      	ldr	r2, [r5, #20]
     7e0:	9b05      	ldr	r3, [sp, #20]
     7e2:	4694      	mov	ip, r2
     7e4:	4463      	add	r3, ip
     7e6:	616b      	str	r3, [r5, #20]
     7e8:	783b      	ldrb	r3, [r7, #0]
     7ea:	2b00      	cmp	r3, #0
     7ec:	d100      	bne.n	7f0 <_vfiprintf_r+0xc8>
     7ee:	e0ac      	b.n	94a <_vfiprintf_r+0x222>
     7f0:	2201      	movs	r2, #1
     7f2:	1c7b      	adds	r3, r7, #1
     7f4:	9303      	str	r3, [sp, #12]
     7f6:	2300      	movs	r3, #0
     7f8:	4252      	negs	r2, r2
     7fa:	606a      	str	r2, [r5, #4]
     7fc:	a904      	add	r1, sp, #16
     7fe:	3254      	adds	r2, #84	; 0x54
     800:	1852      	adds	r2, r2, r1
     802:	602b      	str	r3, [r5, #0]
     804:	60eb      	str	r3, [r5, #12]
     806:	60ab      	str	r3, [r5, #8]
     808:	7013      	strb	r3, [r2, #0]
     80a:	65ab      	str	r3, [r5, #88]	; 0x58
     80c:	9b03      	ldr	r3, [sp, #12]
     80e:	2205      	movs	r2, #5
     810:	7819      	ldrb	r1, [r3, #0]
     812:	485d      	ldr	r0, [pc, #372]	; (988 <_vfiprintf_r+0x260>)
     814:	f000 fce2 	bl	11dc <memchr>
     818:	9b03      	ldr	r3, [sp, #12]
     81a:	1c5f      	adds	r7, r3, #1
     81c:	2800      	cmp	r0, #0
     81e:	d120      	bne.n	862 <_vfiprintf_r+0x13a>
     820:	682a      	ldr	r2, [r5, #0]
     822:	06d3      	lsls	r3, r2, #27
     824:	d504      	bpl.n	830 <_vfiprintf_r+0x108>
     826:	2353      	movs	r3, #83	; 0x53
     828:	a904      	add	r1, sp, #16
     82a:	185b      	adds	r3, r3, r1
     82c:	2120      	movs	r1, #32
     82e:	7019      	strb	r1, [r3, #0]
     830:	0713      	lsls	r3, r2, #28
     832:	d504      	bpl.n	83e <_vfiprintf_r+0x116>
     834:	2353      	movs	r3, #83	; 0x53
     836:	a904      	add	r1, sp, #16
     838:	185b      	adds	r3, r3, r1
     83a:	212b      	movs	r1, #43	; 0x2b
     83c:	7019      	strb	r1, [r3, #0]
     83e:	9b03      	ldr	r3, [sp, #12]
     840:	781b      	ldrb	r3, [r3, #0]
     842:	2b2a      	cmp	r3, #42	; 0x2a
     844:	d016      	beq.n	874 <_vfiprintf_r+0x14c>
     846:	2100      	movs	r1, #0
     848:	68eb      	ldr	r3, [r5, #12]
     84a:	9f03      	ldr	r7, [sp, #12]
     84c:	783a      	ldrb	r2, [r7, #0]
     84e:	1c78      	adds	r0, r7, #1
     850:	3a30      	subs	r2, #48	; 0x30
     852:	4684      	mov	ip, r0
     854:	2a09      	cmp	r2, #9
     856:	d94f      	bls.n	8f8 <_vfiprintf_r+0x1d0>
     858:	2900      	cmp	r1, #0
     85a:	d111      	bne.n	880 <_vfiprintf_r+0x158>
     85c:	e017      	b.n	88e <_vfiprintf_r+0x166>
     85e:	3701      	adds	r7, #1
     860:	e7a9      	b.n	7b6 <_vfiprintf_r+0x8e>
     862:	4b49      	ldr	r3, [pc, #292]	; (988 <_vfiprintf_r+0x260>)
     864:	682a      	ldr	r2, [r5, #0]
     866:	1ac0      	subs	r0, r0, r3
     868:	2301      	movs	r3, #1
     86a:	4083      	lsls	r3, r0
     86c:	4313      	orrs	r3, r2
     86e:	602b      	str	r3, [r5, #0]
     870:	9703      	str	r7, [sp, #12]
     872:	e7cb      	b.n	80c <_vfiprintf_r+0xe4>
     874:	9b07      	ldr	r3, [sp, #28]
     876:	1d19      	adds	r1, r3, #4
     878:	681b      	ldr	r3, [r3, #0]
     87a:	9107      	str	r1, [sp, #28]
     87c:	2b00      	cmp	r3, #0
     87e:	db01      	blt.n	884 <_vfiprintf_r+0x15c>
     880:	930b      	str	r3, [sp, #44]	; 0x2c
     882:	e004      	b.n	88e <_vfiprintf_r+0x166>
     884:	425b      	negs	r3, r3
     886:	60eb      	str	r3, [r5, #12]
     888:	2302      	movs	r3, #2
     88a:	4313      	orrs	r3, r2
     88c:	602b      	str	r3, [r5, #0]
     88e:	783b      	ldrb	r3, [r7, #0]
     890:	2b2e      	cmp	r3, #46	; 0x2e
     892:	d10a      	bne.n	8aa <_vfiprintf_r+0x182>
     894:	787b      	ldrb	r3, [r7, #1]
     896:	2b2a      	cmp	r3, #42	; 0x2a
     898:	d137      	bne.n	90a <_vfiprintf_r+0x1e2>
     89a:	9b07      	ldr	r3, [sp, #28]
     89c:	3702      	adds	r7, #2
     89e:	1d1a      	adds	r2, r3, #4
     8a0:	681b      	ldr	r3, [r3, #0]
     8a2:	9207      	str	r2, [sp, #28]
     8a4:	2b00      	cmp	r3, #0
     8a6:	db2d      	blt.n	904 <_vfiprintf_r+0x1dc>
     8a8:	9309      	str	r3, [sp, #36]	; 0x24
     8aa:	2203      	movs	r2, #3
     8ac:	7839      	ldrb	r1, [r7, #0]
     8ae:	4837      	ldr	r0, [pc, #220]	; (98c <_vfiprintf_r+0x264>)
     8b0:	f000 fc94 	bl	11dc <memchr>
     8b4:	2800      	cmp	r0, #0
     8b6:	d007      	beq.n	8c8 <_vfiprintf_r+0x1a0>
     8b8:	4b34      	ldr	r3, [pc, #208]	; (98c <_vfiprintf_r+0x264>)
     8ba:	682a      	ldr	r2, [r5, #0]
     8bc:	1ac0      	subs	r0, r0, r3
     8be:	2340      	movs	r3, #64	; 0x40
     8c0:	4083      	lsls	r3, r0
     8c2:	4313      	orrs	r3, r2
     8c4:	3701      	adds	r7, #1
     8c6:	602b      	str	r3, [r5, #0]
     8c8:	7839      	ldrb	r1, [r7, #0]
     8ca:	1c7b      	adds	r3, r7, #1
     8cc:	2206      	movs	r2, #6
     8ce:	4830      	ldr	r0, [pc, #192]	; (990 <_vfiprintf_r+0x268>)
     8d0:	9303      	str	r3, [sp, #12]
     8d2:	7629      	strb	r1, [r5, #24]
     8d4:	f000 fc82 	bl	11dc <memchr>
     8d8:	2800      	cmp	r0, #0
     8da:	d045      	beq.n	968 <_vfiprintf_r+0x240>
     8dc:	4b2d      	ldr	r3, [pc, #180]	; (994 <_vfiprintf_r+0x26c>)
     8de:	2b00      	cmp	r3, #0
     8e0:	d127      	bne.n	932 <_vfiprintf_r+0x20a>
     8e2:	2207      	movs	r2, #7
     8e4:	9b07      	ldr	r3, [sp, #28]
     8e6:	3307      	adds	r3, #7
     8e8:	4393      	bics	r3, r2
     8ea:	3308      	adds	r3, #8
     8ec:	9307      	str	r3, [sp, #28]
     8ee:	696b      	ldr	r3, [r5, #20]
     8f0:	9a04      	ldr	r2, [sp, #16]
     8f2:	189b      	adds	r3, r3, r2
     8f4:	616b      	str	r3, [r5, #20]
     8f6:	e75d      	b.n	7b4 <_vfiprintf_r+0x8c>
     8f8:	210a      	movs	r1, #10
     8fa:	434b      	muls	r3, r1
     8fc:	4667      	mov	r7, ip
     8fe:	189b      	adds	r3, r3, r2
     900:	3909      	subs	r1, #9
     902:	e7a3      	b.n	84c <_vfiprintf_r+0x124>
     904:	2301      	movs	r3, #1
     906:	425b      	negs	r3, r3
     908:	e7ce      	b.n	8a8 <_vfiprintf_r+0x180>
     90a:	2300      	movs	r3, #0
     90c:	001a      	movs	r2, r3
     90e:	3701      	adds	r7, #1
     910:	606b      	str	r3, [r5, #4]
     912:	7839      	ldrb	r1, [r7, #0]
     914:	1c78      	adds	r0, r7, #1
     916:	3930      	subs	r1, #48	; 0x30
     918:	4684      	mov	ip, r0
     91a:	2909      	cmp	r1, #9
     91c:	d903      	bls.n	926 <_vfiprintf_r+0x1fe>
     91e:	2b00      	cmp	r3, #0
     920:	d0c3      	beq.n	8aa <_vfiprintf_r+0x182>
     922:	9209      	str	r2, [sp, #36]	; 0x24
     924:	e7c1      	b.n	8aa <_vfiprintf_r+0x182>
     926:	230a      	movs	r3, #10
     928:	435a      	muls	r2, r3
     92a:	4667      	mov	r7, ip
     92c:	1852      	adds	r2, r2, r1
     92e:	3b09      	subs	r3, #9
     930:	e7ef      	b.n	912 <_vfiprintf_r+0x1ea>
     932:	ab07      	add	r3, sp, #28
     934:	9300      	str	r3, [sp, #0]
     936:	0022      	movs	r2, r4
     938:	0029      	movs	r1, r5
     93a:	0030      	movs	r0, r6
     93c:	4b16      	ldr	r3, [pc, #88]	; (998 <_vfiprintf_r+0x270>)
     93e:	e000      	b.n	942 <_vfiprintf_r+0x21a>
     940:	bf00      	nop
     942:	9004      	str	r0, [sp, #16]
     944:	9b04      	ldr	r3, [sp, #16]
     946:	3301      	adds	r3, #1
     948:	d1d1      	bne.n	8ee <_vfiprintf_r+0x1c6>
     94a:	6e63      	ldr	r3, [r4, #100]	; 0x64
     94c:	07db      	lsls	r3, r3, #31
     94e:	d405      	bmi.n	95c <_vfiprintf_r+0x234>
     950:	89a3      	ldrh	r3, [r4, #12]
     952:	059b      	lsls	r3, r3, #22
     954:	d402      	bmi.n	95c <_vfiprintf_r+0x234>
     956:	6da0      	ldr	r0, [r4, #88]	; 0x58
     958:	f7ff fe5e 	bl	618 <__retarget_lock_release_recursive>
     95c:	89a3      	ldrh	r3, [r4, #12]
     95e:	065b      	lsls	r3, r3, #25
     960:	d500      	bpl.n	964 <_vfiprintf_r+0x23c>
     962:	e70a      	b.n	77a <_vfiprintf_r+0x52>
     964:	980d      	ldr	r0, [sp, #52]	; 0x34
     966:	e70a      	b.n	77e <_vfiprintf_r+0x56>
     968:	ab07      	add	r3, sp, #28
     96a:	9300      	str	r3, [sp, #0]
     96c:	0022      	movs	r2, r4
     96e:	0029      	movs	r1, r5
     970:	0030      	movs	r0, r6
     972:	4b09      	ldr	r3, [pc, #36]	; (998 <_vfiprintf_r+0x270>)
     974:	f000 f882 	bl	a7c <_printf_i>
     978:	e7e3      	b.n	942 <_vfiprintf_r+0x21a>
     97a:	46c0      	nop			; (mov r8, r8)
     97c:	00001374 	andeq	r1, r0, r4, ror r3
     980:	00001394 	muleq	r0, r4, r3
     984:	00001354 	andeq	r1, r0, r4, asr r3
     988:	000013b4 			; <UNDEFINED> instruction: 0x000013b4
     98c:	000013ba 			; <UNDEFINED> instruction: 0x000013ba
     990:	000013be 			; <UNDEFINED> instruction: 0x000013be
     994:	00000000 	andeq	r0, r0, r0
     998:	00000703 	andeq	r0, r0, r3, lsl #14

0000099c <_printf_common>:
     99c:	b5f7      	push	{r0, r1, r2, r4, r5, r6, r7, lr}
     99e:	0015      	movs	r5, r2
     9a0:	9301      	str	r3, [sp, #4]
     9a2:	688a      	ldr	r2, [r1, #8]
     9a4:	690b      	ldr	r3, [r1, #16]
     9a6:	000c      	movs	r4, r1
     9a8:	9000      	str	r0, [sp, #0]
     9aa:	4293      	cmp	r3, r2
     9ac:	da00      	bge.n	9b0 <_printf_common+0x14>
     9ae:	0013      	movs	r3, r2
     9b0:	0022      	movs	r2, r4
     9b2:	602b      	str	r3, [r5, #0]
     9b4:	3243      	adds	r2, #67	; 0x43
     9b6:	7812      	ldrb	r2, [r2, #0]
     9b8:	2a00      	cmp	r2, #0
     9ba:	d001      	beq.n	9c0 <_printf_common+0x24>
     9bc:	3301      	adds	r3, #1
     9be:	602b      	str	r3, [r5, #0]
     9c0:	6823      	ldr	r3, [r4, #0]
     9c2:	069b      	lsls	r3, r3, #26
     9c4:	d502      	bpl.n	9cc <_printf_common+0x30>
     9c6:	682b      	ldr	r3, [r5, #0]
     9c8:	3302      	adds	r3, #2
     9ca:	602b      	str	r3, [r5, #0]
     9cc:	6822      	ldr	r2, [r4, #0]
     9ce:	2306      	movs	r3, #6
     9d0:	0017      	movs	r7, r2
     9d2:	401f      	ands	r7, r3
     9d4:	421a      	tst	r2, r3
     9d6:	d027      	beq.n	a28 <_printf_common+0x8c>
     9d8:	0023      	movs	r3, r4
     9da:	3343      	adds	r3, #67	; 0x43
     9dc:	781b      	ldrb	r3, [r3, #0]
     9de:	1e5a      	subs	r2, r3, #1
     9e0:	4193      	sbcs	r3, r2
     9e2:	6822      	ldr	r2, [r4, #0]
     9e4:	0692      	lsls	r2, r2, #26
     9e6:	d430      	bmi.n	a4a <_printf_common+0xae>
     9e8:	0022      	movs	r2, r4
     9ea:	9901      	ldr	r1, [sp, #4]
     9ec:	9800      	ldr	r0, [sp, #0]
     9ee:	9e08      	ldr	r6, [sp, #32]
     9f0:	3243      	adds	r2, #67	; 0x43
     9f2:	47b0      	blx	r6
     9f4:	1c43      	adds	r3, r0, #1
     9f6:	d025      	beq.n	a44 <_printf_common+0xa8>
     9f8:	2306      	movs	r3, #6
     9fa:	6820      	ldr	r0, [r4, #0]
     9fc:	682a      	ldr	r2, [r5, #0]
     9fe:	68e1      	ldr	r1, [r4, #12]
     a00:	2500      	movs	r5, #0
     a02:	4003      	ands	r3, r0
     a04:	2b04      	cmp	r3, #4
     a06:	d103      	bne.n	a10 <_printf_common+0x74>
     a08:	1a8d      	subs	r5, r1, r2
     a0a:	43eb      	mvns	r3, r5
     a0c:	17db      	asrs	r3, r3, #31
     a0e:	401d      	ands	r5, r3
     a10:	68a3      	ldr	r3, [r4, #8]
     a12:	6922      	ldr	r2, [r4, #16]
     a14:	4293      	cmp	r3, r2
     a16:	dd01      	ble.n	a1c <_printf_common+0x80>
     a18:	1a9b      	subs	r3, r3, r2
     a1a:	18ed      	adds	r5, r5, r3
     a1c:	2700      	movs	r7, #0
     a1e:	42bd      	cmp	r5, r7
     a20:	d120      	bne.n	a64 <_printf_common+0xc8>
     a22:	2000      	movs	r0, #0
     a24:	e010      	b.n	a48 <_printf_common+0xac>
     a26:	3701      	adds	r7, #1
     a28:	68e3      	ldr	r3, [r4, #12]
     a2a:	682a      	ldr	r2, [r5, #0]
     a2c:	1a9b      	subs	r3, r3, r2
     a2e:	42bb      	cmp	r3, r7
     a30:	ddd2      	ble.n	9d8 <_printf_common+0x3c>
     a32:	0022      	movs	r2, r4
     a34:	2301      	movs	r3, #1
     a36:	9901      	ldr	r1, [sp, #4]
     a38:	9800      	ldr	r0, [sp, #0]
     a3a:	9e08      	ldr	r6, [sp, #32]
     a3c:	3219      	adds	r2, #25
     a3e:	47b0      	blx	r6
     a40:	1c43      	adds	r3, r0, #1
     a42:	d1f0      	bne.n	a26 <_printf_common+0x8a>
     a44:	2001      	movs	r0, #1
     a46:	4240      	negs	r0, r0
     a48:	bdfe      	pop	{r1, r2, r3, r4, r5, r6, r7, pc}
     a4a:	2030      	movs	r0, #48	; 0x30
     a4c:	18e1      	adds	r1, r4, r3
     a4e:	3143      	adds	r1, #67	; 0x43
     a50:	7008      	strb	r0, [r1, #0]
     a52:	0021      	movs	r1, r4
     a54:	1c5a      	adds	r2, r3, #1
     a56:	3145      	adds	r1, #69	; 0x45
     a58:	7809      	ldrb	r1, [r1, #0]
     a5a:	18a2      	adds	r2, r4, r2
     a5c:	3243      	adds	r2, #67	; 0x43
     a5e:	3302      	adds	r3, #2
     a60:	7011      	strb	r1, [r2, #0]
     a62:	e7c1      	b.n	9e8 <_printf_common+0x4c>
     a64:	0022      	movs	r2, r4
     a66:	2301      	movs	r3, #1
     a68:	9901      	ldr	r1, [sp, #4]
     a6a:	9800      	ldr	r0, [sp, #0]
     a6c:	9e08      	ldr	r6, [sp, #32]
     a6e:	321a      	adds	r2, #26
     a70:	47b0      	blx	r6
     a72:	1c43      	adds	r3, r0, #1
     a74:	d0e6      	beq.n	a44 <_printf_common+0xa8>
     a76:	3701      	adds	r7, #1
     a78:	e7d1      	b.n	a1e <_printf_common+0x82>
	...

00000a7c <_printf_i>:
     a7c:	b5f0      	push	{r4, r5, r6, r7, lr}
     a7e:	b08b      	sub	sp, #44	; 0x2c
     a80:	9206      	str	r2, [sp, #24]
     a82:	000a      	movs	r2, r1
     a84:	3243      	adds	r2, #67	; 0x43
     a86:	9307      	str	r3, [sp, #28]
     a88:	9005      	str	r0, [sp, #20]
     a8a:	9204      	str	r2, [sp, #16]
     a8c:	7e0a      	ldrb	r2, [r1, #24]
     a8e:	000c      	movs	r4, r1
     a90:	9b10      	ldr	r3, [sp, #64]	; 0x40
     a92:	2a78      	cmp	r2, #120	; 0x78
     a94:	d807      	bhi.n	aa6 <_printf_i+0x2a>
     a96:	2a62      	cmp	r2, #98	; 0x62
     a98:	d809      	bhi.n	aae <_printf_i+0x32>
     a9a:	2a00      	cmp	r2, #0
     a9c:	d100      	bne.n	aa0 <_printf_i+0x24>
     a9e:	e0c1      	b.n	c24 <_printf_i+0x1a8>
     aa0:	2a58      	cmp	r2, #88	; 0x58
     aa2:	d100      	bne.n	aa6 <_printf_i+0x2a>
     aa4:	e08c      	b.n	bc0 <_printf_i+0x144>
     aa6:	0026      	movs	r6, r4
     aa8:	3642      	adds	r6, #66	; 0x42
     aaa:	7032      	strb	r2, [r6, #0]
     aac:	e022      	b.n	af4 <_printf_i+0x78>
     aae:	0010      	movs	r0, r2
     ab0:	3863      	subs	r0, #99	; 0x63
     ab2:	2815      	cmp	r0, #21
     ab4:	d8f7      	bhi.n	aa6 <_printf_i+0x2a>
     ab6:	f7ff faef 	bl	98 <__gnu_thumb1_case_shi>
     aba:	001f0016 	andseq	r0, pc, r6, lsl r0	; <UNPREDICTABLE>
     abe:	fff6fff6 			; <UNDEFINED> instruction: 0xfff6fff6
     ac2:	fff6fff6 			; <UNDEFINED> instruction: 0xfff6fff6
     ac6:	fff6001f 			; <UNDEFINED> instruction: 0xfff6001f
     aca:	fff6fff6 			; <UNDEFINED> instruction: 0xfff6fff6
     ace:	00a8fff6 	strdeq	pc, [r8], r6	; <UNPREDICTABLE>
     ad2:	009a0036 	addseq	r0, sl, r6, lsr r0
     ad6:	fff6fff6 			; <UNDEFINED> instruction: 0xfff6fff6
     ada:	fff600b9 			; <UNDEFINED> instruction: 0xfff600b9
     ade:	fff60036 			; <UNDEFINED> instruction: 0xfff60036
     ae2:	009efff6 			; <UNDEFINED> instruction: 0x009efff6
     ae6:	0026      	movs	r6, r4
     ae8:	681a      	ldr	r2, [r3, #0]
     aea:	3642      	adds	r6, #66	; 0x42
     aec:	1d11      	adds	r1, r2, #4
     aee:	6019      	str	r1, [r3, #0]
     af0:	6813      	ldr	r3, [r2, #0]
     af2:	7033      	strb	r3, [r6, #0]
     af4:	2301      	movs	r3, #1
     af6:	e0a7      	b.n	c48 <_printf_i+0x1cc>
     af8:	6808      	ldr	r0, [r1, #0]
     afa:	6819      	ldr	r1, [r3, #0]
     afc:	1d0a      	adds	r2, r1, #4
     afe:	0605      	lsls	r5, r0, #24
     b00:	d50b      	bpl.n	b1a <_printf_i+0x9e>
     b02:	680d      	ldr	r5, [r1, #0]
     b04:	601a      	str	r2, [r3, #0]
     b06:	2d00      	cmp	r5, #0
     b08:	da03      	bge.n	b12 <_printf_i+0x96>
     b0a:	232d      	movs	r3, #45	; 0x2d
     b0c:	9a04      	ldr	r2, [sp, #16]
     b0e:	426d      	negs	r5, r5
     b10:	7013      	strb	r3, [r2, #0]
     b12:	4b61      	ldr	r3, [pc, #388]	; (c98 <_printf_i+0x21c>)
     b14:	270a      	movs	r7, #10
     b16:	9303      	str	r3, [sp, #12]
     b18:	e01b      	b.n	b52 <_printf_i+0xd6>
     b1a:	680d      	ldr	r5, [r1, #0]
     b1c:	601a      	str	r2, [r3, #0]
     b1e:	0641      	lsls	r1, r0, #25
     b20:	d5f1      	bpl.n	b06 <_printf_i+0x8a>
     b22:	b22d      	sxth	r5, r5
     b24:	e7ef      	b.n	b06 <_printf_i+0x8a>
     b26:	680d      	ldr	r5, [r1, #0]
     b28:	6819      	ldr	r1, [r3, #0]
     b2a:	1d08      	adds	r0, r1, #4
     b2c:	6018      	str	r0, [r3, #0]
     b2e:	062e      	lsls	r6, r5, #24
     b30:	d501      	bpl.n	b36 <_printf_i+0xba>
     b32:	680d      	ldr	r5, [r1, #0]
     b34:	e003      	b.n	b3e <_printf_i+0xc2>
     b36:	066d      	lsls	r5, r5, #25
     b38:	d5fb      	bpl.n	b32 <_printf_i+0xb6>
     b3a:	680d      	ldr	r5, [r1, #0]
     b3c:	b2ad      	uxth	r5, r5
     b3e:	4b56      	ldr	r3, [pc, #344]	; (c98 <_printf_i+0x21c>)
     b40:	2708      	movs	r7, #8
     b42:	9303      	str	r3, [sp, #12]
     b44:	2a6f      	cmp	r2, #111	; 0x6f
     b46:	d000      	beq.n	b4a <_printf_i+0xce>
     b48:	3702      	adds	r7, #2
     b4a:	0023      	movs	r3, r4
     b4c:	2200      	movs	r2, #0
     b4e:	3343      	adds	r3, #67	; 0x43
     b50:	701a      	strb	r2, [r3, #0]
     b52:	6863      	ldr	r3, [r4, #4]
     b54:	60a3      	str	r3, [r4, #8]
     b56:	2b00      	cmp	r3, #0
     b58:	db03      	blt.n	b62 <_printf_i+0xe6>
     b5a:	2204      	movs	r2, #4
     b5c:	6821      	ldr	r1, [r4, #0]
     b5e:	4391      	bics	r1, r2
     b60:	6021      	str	r1, [r4, #0]
     b62:	2d00      	cmp	r5, #0
     b64:	d102      	bne.n	b6c <_printf_i+0xf0>
     b66:	9e04      	ldr	r6, [sp, #16]
     b68:	2b00      	cmp	r3, #0
     b6a:	d00c      	beq.n	b86 <_printf_i+0x10a>
     b6c:	9e04      	ldr	r6, [sp, #16]
     b6e:	0028      	movs	r0, r5
     b70:	0039      	movs	r1, r7
     b72:	f7ff fb21 	bl	1b8 <__aeabi_uidivmod>
     b76:	9b03      	ldr	r3, [sp, #12]
     b78:	3e01      	subs	r6, #1
     b7a:	5c5b      	ldrb	r3, [r3, r1]
     b7c:	7033      	strb	r3, [r6, #0]
     b7e:	002b      	movs	r3, r5
     b80:	0005      	movs	r5, r0
     b82:	429f      	cmp	r7, r3
     b84:	d9f3      	bls.n	b6e <_printf_i+0xf2>
     b86:	2f08      	cmp	r7, #8
     b88:	d109      	bne.n	b9e <_printf_i+0x122>
     b8a:	6823      	ldr	r3, [r4, #0]
     b8c:	07db      	lsls	r3, r3, #31
     b8e:	d506      	bpl.n	b9e <_printf_i+0x122>
     b90:	6863      	ldr	r3, [r4, #4]
     b92:	6922      	ldr	r2, [r4, #16]
     b94:	4293      	cmp	r3, r2
     b96:	dc02      	bgt.n	b9e <_printf_i+0x122>
     b98:	2330      	movs	r3, #48	; 0x30
     b9a:	3e01      	subs	r6, #1
     b9c:	7033      	strb	r3, [r6, #0]
     b9e:	9b04      	ldr	r3, [sp, #16]
     ba0:	1b9b      	subs	r3, r3, r6
     ba2:	6123      	str	r3, [r4, #16]
     ba4:	9b07      	ldr	r3, [sp, #28]
     ba6:	0021      	movs	r1, r4
     ba8:	9300      	str	r3, [sp, #0]
     baa:	9805      	ldr	r0, [sp, #20]
     bac:	9b06      	ldr	r3, [sp, #24]
     bae:	aa09      	add	r2, sp, #36	; 0x24
     bb0:	f7ff fef4 	bl	99c <_printf_common>
     bb4:	1c43      	adds	r3, r0, #1
     bb6:	d14c      	bne.n	c52 <_printf_i+0x1d6>
     bb8:	2001      	movs	r0, #1
     bba:	4240      	negs	r0, r0
     bbc:	b00b      	add	sp, #44	; 0x2c
     bbe:	bdf0      	pop	{r4, r5, r6, r7, pc}
     bc0:	3145      	adds	r1, #69	; 0x45
     bc2:	700a      	strb	r2, [r1, #0]
     bc4:	4a34      	ldr	r2, [pc, #208]	; (c98 <_printf_i+0x21c>)
     bc6:	9203      	str	r2, [sp, #12]
     bc8:	681a      	ldr	r2, [r3, #0]
     bca:	6821      	ldr	r1, [r4, #0]
     bcc:	ca20      	ldmia	r2!, {r5}
     bce:	601a      	str	r2, [r3, #0]
     bd0:	0608      	lsls	r0, r1, #24
     bd2:	d516      	bpl.n	c02 <_printf_i+0x186>
     bd4:	07cb      	lsls	r3, r1, #31
     bd6:	d502      	bpl.n	bde <_printf_i+0x162>
     bd8:	2320      	movs	r3, #32
     bda:	4319      	orrs	r1, r3
     bdc:	6021      	str	r1, [r4, #0]
     bde:	2710      	movs	r7, #16
     be0:	2d00      	cmp	r5, #0
     be2:	d1b2      	bne.n	b4a <_printf_i+0xce>
     be4:	2320      	movs	r3, #32
     be6:	6822      	ldr	r2, [r4, #0]
     be8:	439a      	bics	r2, r3
     bea:	6022      	str	r2, [r4, #0]
     bec:	e7ad      	b.n	b4a <_printf_i+0xce>
     bee:	2220      	movs	r2, #32
     bf0:	6809      	ldr	r1, [r1, #0]
     bf2:	430a      	orrs	r2, r1
     bf4:	6022      	str	r2, [r4, #0]
     bf6:	0022      	movs	r2, r4
     bf8:	2178      	movs	r1, #120	; 0x78
     bfa:	3245      	adds	r2, #69	; 0x45
     bfc:	7011      	strb	r1, [r2, #0]
     bfe:	4a27      	ldr	r2, [pc, #156]	; (c9c <_printf_i+0x220>)
     c00:	e7e1      	b.n	bc6 <_printf_i+0x14a>
     c02:	0648      	lsls	r0, r1, #25
     c04:	d5e6      	bpl.n	bd4 <_printf_i+0x158>
     c06:	b2ad      	uxth	r5, r5
     c08:	e7e4      	b.n	bd4 <_printf_i+0x158>
     c0a:	681a      	ldr	r2, [r3, #0]
     c0c:	680d      	ldr	r5, [r1, #0]
     c0e:	1d10      	adds	r0, r2, #4
     c10:	6949      	ldr	r1, [r1, #20]
     c12:	6018      	str	r0, [r3, #0]
     c14:	6813      	ldr	r3, [r2, #0]
     c16:	062e      	lsls	r6, r5, #24
     c18:	d501      	bpl.n	c1e <_printf_i+0x1a2>
     c1a:	6019      	str	r1, [r3, #0]
     c1c:	e002      	b.n	c24 <_printf_i+0x1a8>
     c1e:	066d      	lsls	r5, r5, #25
     c20:	d5fb      	bpl.n	c1a <_printf_i+0x19e>
     c22:	8019      	strh	r1, [r3, #0]
     c24:	2300      	movs	r3, #0
     c26:	9e04      	ldr	r6, [sp, #16]
     c28:	6123      	str	r3, [r4, #16]
     c2a:	e7bb      	b.n	ba4 <_printf_i+0x128>
     c2c:	681a      	ldr	r2, [r3, #0]
     c2e:	1d11      	adds	r1, r2, #4
     c30:	6019      	str	r1, [r3, #0]
     c32:	6816      	ldr	r6, [r2, #0]
     c34:	2100      	movs	r1, #0
     c36:	0030      	movs	r0, r6
     c38:	6862      	ldr	r2, [r4, #4]
     c3a:	f000 facf 	bl	11dc <memchr>
     c3e:	2800      	cmp	r0, #0
     c40:	d001      	beq.n	c46 <_printf_i+0x1ca>
     c42:	1b80      	subs	r0, r0, r6
     c44:	6060      	str	r0, [r4, #4]
     c46:	6863      	ldr	r3, [r4, #4]
     c48:	6123      	str	r3, [r4, #16]
     c4a:	2300      	movs	r3, #0
     c4c:	9a04      	ldr	r2, [sp, #16]
     c4e:	7013      	strb	r3, [r2, #0]
     c50:	e7a8      	b.n	ba4 <_printf_i+0x128>
     c52:	6923      	ldr	r3, [r4, #16]
     c54:	0032      	movs	r2, r6
     c56:	9906      	ldr	r1, [sp, #24]
     c58:	9805      	ldr	r0, [sp, #20]
     c5a:	9d07      	ldr	r5, [sp, #28]
     c5c:	47a8      	blx	r5
     c5e:	1c43      	adds	r3, r0, #1
     c60:	d0aa      	beq.n	bb8 <_printf_i+0x13c>
     c62:	6823      	ldr	r3, [r4, #0]
     c64:	079b      	lsls	r3, r3, #30
     c66:	d415      	bmi.n	c94 <_printf_i+0x218>
     c68:	9b09      	ldr	r3, [sp, #36]	; 0x24
     c6a:	68e0      	ldr	r0, [r4, #12]
     c6c:	4298      	cmp	r0, r3
     c6e:	daa5      	bge.n	bbc <_printf_i+0x140>
     c70:	0018      	movs	r0, r3
     c72:	e7a3      	b.n	bbc <_printf_i+0x140>
     c74:	0022      	movs	r2, r4
     c76:	2301      	movs	r3, #1
     c78:	9906      	ldr	r1, [sp, #24]
     c7a:	9805      	ldr	r0, [sp, #20]
     c7c:	9e07      	ldr	r6, [sp, #28]
     c7e:	3219      	adds	r2, #25
     c80:	47b0      	blx	r6
     c82:	1c43      	adds	r3, r0, #1
     c84:	d098      	beq.n	bb8 <_printf_i+0x13c>
     c86:	3501      	adds	r5, #1
     c88:	68e3      	ldr	r3, [r4, #12]
     c8a:	9a09      	ldr	r2, [sp, #36]	; 0x24
     c8c:	1a9b      	subs	r3, r3, r2
     c8e:	42ab      	cmp	r3, r5
     c90:	dcf0      	bgt.n	c74 <_printf_i+0x1f8>
     c92:	e7e9      	b.n	c68 <_printf_i+0x1ec>
     c94:	2500      	movs	r5, #0
     c96:	e7f7      	b.n	c88 <_printf_i+0x20c>
     c98:	000013c5 	andeq	r1, r0, r5, asr #7
     c9c:	000013d6 	ldrdeq	r1, [r0], -r6

00000ca0 <_sbrk_r>:
     ca0:	2300      	movs	r3, #0
     ca2:	b570      	push	{r4, r5, r6, lr}
     ca4:	4d06      	ldr	r5, [pc, #24]	; (cc0 <_sbrk_r+0x20>)
     ca6:	0004      	movs	r4, r0
     ca8:	0008      	movs	r0, r1
     caa:	602b      	str	r3, [r5, #0]
     cac:	f000 fb34 	bl	1318 <_sbrk>
     cb0:	1c43      	adds	r3, r0, #1
     cb2:	d103      	bne.n	cbc <_sbrk_r+0x1c>
     cb4:	682b      	ldr	r3, [r5, #0]
     cb6:	2b00      	cmp	r3, #0
     cb8:	d000      	beq.n	cbc <_sbrk_r+0x1c>
     cba:	6023      	str	r3, [r4, #0]
     cbc:	bd70      	pop	{r4, r5, r6, pc}
     cbe:	46c0      	nop			; (mov r8, r8)
     cc0:	2000008c 	andcs	r0, r0, ip, lsl #1

00000cc4 <__sread>:
     cc4:	b570      	push	{r4, r5, r6, lr}
     cc6:	000c      	movs	r4, r1
     cc8:	250e      	movs	r5, #14
     cca:	5f49      	ldrsh	r1, [r1, r5]
     ccc:	f000 faec 	bl	12a8 <_read_r>
     cd0:	2800      	cmp	r0, #0
     cd2:	db03      	blt.n	cdc <__sread+0x18>
     cd4:	6d63      	ldr	r3, [r4, #84]	; 0x54
     cd6:	181b      	adds	r3, r3, r0
     cd8:	6563      	str	r3, [r4, #84]	; 0x54
     cda:	bd70      	pop	{r4, r5, r6, pc}
     cdc:	89a3      	ldrh	r3, [r4, #12]
     cde:	4a02      	ldr	r2, [pc, #8]	; (ce8 <__sread+0x24>)
     ce0:	4013      	ands	r3, r2
     ce2:	81a3      	strh	r3, [r4, #12]
     ce4:	e7f9      	b.n	cda <__sread+0x16>
     ce6:	46c0      	nop			; (mov r8, r8)
     ce8:	ffffefff 			; <UNDEFINED> instruction: 0xffffefff

00000cec <__swrite>:
     cec:	b5f8      	push	{r3, r4, r5, r6, r7, lr}
     cee:	001f      	movs	r7, r3
     cf0:	898b      	ldrh	r3, [r1, #12]
     cf2:	0005      	movs	r5, r0
     cf4:	000c      	movs	r4, r1
     cf6:	0016      	movs	r6, r2
     cf8:	05db      	lsls	r3, r3, #23
     cfa:	d505      	bpl.n	d08 <__swrite+0x1c>
     cfc:	230e      	movs	r3, #14
     cfe:	5ec9      	ldrsh	r1, [r1, r3]
     d00:	2200      	movs	r2, #0
     d02:	2302      	movs	r3, #2
     d04:	f000 f9ea 	bl	10dc <_lseek_r>
     d08:	89a3      	ldrh	r3, [r4, #12]
     d0a:	4a05      	ldr	r2, [pc, #20]	; (d20 <__swrite+0x34>)
     d0c:	0028      	movs	r0, r5
     d0e:	4013      	ands	r3, r2
     d10:	81a3      	strh	r3, [r4, #12]
     d12:	0032      	movs	r2, r6
     d14:	230e      	movs	r3, #14
     d16:	5ee1      	ldrsh	r1, [r4, r3]
     d18:	003b      	movs	r3, r7
     d1a:	f000 f875 	bl	e08 <_write_r>
     d1e:	bdf8      	pop	{r3, r4, r5, r6, r7, pc}
     d20:	ffffefff 			; <UNDEFINED> instruction: 0xffffefff

00000d24 <__sseek>:
     d24:	b570      	push	{r4, r5, r6, lr}
     d26:	000c      	movs	r4, r1
     d28:	250e      	movs	r5, #14
     d2a:	5f49      	ldrsh	r1, [r1, r5]
     d2c:	f000 f9d6 	bl	10dc <_lseek_r>
     d30:	89a3      	ldrh	r3, [r4, #12]
     d32:	1c42      	adds	r2, r0, #1
     d34:	d103      	bne.n	d3e <__sseek+0x1a>
     d36:	4a05      	ldr	r2, [pc, #20]	; (d4c <__sseek+0x28>)
     d38:	4013      	ands	r3, r2
     d3a:	81a3      	strh	r3, [r4, #12]
     d3c:	bd70      	pop	{r4, r5, r6, pc}
     d3e:	2280      	movs	r2, #128	; 0x80
     d40:	0152      	lsls	r2, r2, #5
     d42:	4313      	orrs	r3, r2
     d44:	81a3      	strh	r3, [r4, #12]
     d46:	6560      	str	r0, [r4, #84]	; 0x54
     d48:	e7f8      	b.n	d3c <__sseek+0x18>
     d4a:	46c0      	nop			; (mov r8, r8)
     d4c:	ffffefff 			; <UNDEFINED> instruction: 0xffffefff

00000d50 <__sclose>:
     d50:	b510      	push	{r4, lr}
     d52:	230e      	movs	r3, #14
     d54:	5ec9      	ldrsh	r1, [r1, r3]
     d56:	f000 f8e3 	bl	f20 <_close_r>
     d5a:	bd10      	pop	{r4, pc}

00000d5c <__swbuf_r>:
     d5c:	b5f8      	push	{r3, r4, r5, r6, r7, lr}
     d5e:	0005      	movs	r5, r0
     d60:	000e      	movs	r6, r1
     d62:	0014      	movs	r4, r2
     d64:	2800      	cmp	r0, #0
     d66:	d004      	beq.n	d72 <__swbuf_r+0x16>
     d68:	6983      	ldr	r3, [r0, #24]
     d6a:	2b00      	cmp	r3, #0
     d6c:	d101      	bne.n	d72 <__swbuf_r+0x16>
     d6e:	f7ff fbb1 	bl	4d4 <__sinit>
     d72:	4b22      	ldr	r3, [pc, #136]	; (dfc <__swbuf_r+0xa0>)
     d74:	429c      	cmp	r4, r3
     d76:	d12e      	bne.n	dd6 <__swbuf_r+0x7a>
     d78:	686c      	ldr	r4, [r5, #4]
     d7a:	69a3      	ldr	r3, [r4, #24]
     d7c:	60a3      	str	r3, [r4, #8]
     d7e:	89a3      	ldrh	r3, [r4, #12]
     d80:	071b      	lsls	r3, r3, #28
     d82:	d532      	bpl.n	dea <__swbuf_r+0x8e>
     d84:	6923      	ldr	r3, [r4, #16]
     d86:	2b00      	cmp	r3, #0
     d88:	d02f      	beq.n	dea <__swbuf_r+0x8e>
     d8a:	6823      	ldr	r3, [r4, #0]
     d8c:	6922      	ldr	r2, [r4, #16]
     d8e:	b2f7      	uxtb	r7, r6
     d90:	1a98      	subs	r0, r3, r2
     d92:	6963      	ldr	r3, [r4, #20]
     d94:	b2f6      	uxtb	r6, r6
     d96:	4283      	cmp	r3, r0
     d98:	dc05      	bgt.n	da6 <__swbuf_r+0x4a>
     d9a:	0021      	movs	r1, r4
     d9c:	0028      	movs	r0, r5
     d9e:	f000 f95d 	bl	105c <_fflush_r>
     da2:	2800      	cmp	r0, #0
     da4:	d127      	bne.n	df6 <__swbuf_r+0x9a>
     da6:	68a3      	ldr	r3, [r4, #8]
     da8:	3001      	adds	r0, #1
     daa:	3b01      	subs	r3, #1
     dac:	60a3      	str	r3, [r4, #8]
     dae:	6823      	ldr	r3, [r4, #0]
     db0:	1c5a      	adds	r2, r3, #1
     db2:	6022      	str	r2, [r4, #0]
     db4:	701f      	strb	r7, [r3, #0]
     db6:	6963      	ldr	r3, [r4, #20]
     db8:	4283      	cmp	r3, r0
     dba:	d004      	beq.n	dc6 <__swbuf_r+0x6a>
     dbc:	89a3      	ldrh	r3, [r4, #12]
     dbe:	07db      	lsls	r3, r3, #31
     dc0:	d507      	bpl.n	dd2 <__swbuf_r+0x76>
     dc2:	2e0a      	cmp	r6, #10
     dc4:	d105      	bne.n	dd2 <__swbuf_r+0x76>
     dc6:	0021      	movs	r1, r4
     dc8:	0028      	movs	r0, r5
     dca:	f000 f947 	bl	105c <_fflush_r>
     dce:	2800      	cmp	r0, #0
     dd0:	d111      	bne.n	df6 <__swbuf_r+0x9a>
     dd2:	0030      	movs	r0, r6
     dd4:	bdf8      	pop	{r3, r4, r5, r6, r7, pc}
     dd6:	4b0a      	ldr	r3, [pc, #40]	; (e00 <__swbuf_r+0xa4>)
     dd8:	429c      	cmp	r4, r3
     dda:	d101      	bne.n	de0 <__swbuf_r+0x84>
     ddc:	68ac      	ldr	r4, [r5, #8]
     dde:	e7cc      	b.n	d7a <__swbuf_r+0x1e>
     de0:	4b08      	ldr	r3, [pc, #32]	; (e04 <__swbuf_r+0xa8>)
     de2:	429c      	cmp	r4, r3
     de4:	d1c9      	bne.n	d7a <__swbuf_r+0x1e>
     de6:	68ec      	ldr	r4, [r5, #12]
     de8:	e7c7      	b.n	d7a <__swbuf_r+0x1e>
     dea:	0021      	movs	r1, r4
     dec:	0028      	movs	r0, r5
     dee:	f000 f81f 	bl	e30 <__swsetup_r>
     df2:	2800      	cmp	r0, #0
     df4:	d0c9      	beq.n	d8a <__swbuf_r+0x2e>
     df6:	2601      	movs	r6, #1
     df8:	4276      	negs	r6, r6
     dfa:	e7ea      	b.n	dd2 <__swbuf_r+0x76>
     dfc:	00001374 	andeq	r1, r0, r4, ror r3
     e00:	00001394 	muleq	r0, r4, r3
     e04:	00001354 	andeq	r1, r0, r4, asr r3

00000e08 <_write_r>:
     e08:	b570      	push	{r4, r5, r6, lr}
     e0a:	0004      	movs	r4, r0
     e0c:	0008      	movs	r0, r1
     e0e:	0011      	movs	r1, r2
     e10:	001a      	movs	r2, r3
     e12:	2300      	movs	r3, #0
     e14:	4d05      	ldr	r5, [pc, #20]	; (e2c <_write_r+0x24>)
     e16:	602b      	str	r3, [r5, #0]
     e18:	f7ff fa34 	bl	284 <_write>
     e1c:	1c43      	adds	r3, r0, #1
     e1e:	d103      	bne.n	e28 <_write_r+0x20>
     e20:	682b      	ldr	r3, [r5, #0]
     e22:	2b00      	cmp	r3, #0
     e24:	d000      	beq.n	e28 <_write_r+0x20>
     e26:	6023      	str	r3, [r4, #0]
     e28:	bd70      	pop	{r4, r5, r6, pc}
     e2a:	46c0      	nop			; (mov r8, r8)
     e2c:	2000008c 	andcs	r0, r0, ip, lsl #1

00000e30 <__swsetup_r>:
     e30:	4b37      	ldr	r3, [pc, #220]	; (f10 <__swsetup_r+0xe0>)
     e32:	b570      	push	{r4, r5, r6, lr}
     e34:	681d      	ldr	r5, [r3, #0]
     e36:	0006      	movs	r6, r0
     e38:	000c      	movs	r4, r1
     e3a:	2d00      	cmp	r5, #0
     e3c:	d005      	beq.n	e4a <__swsetup_r+0x1a>
     e3e:	69ab      	ldr	r3, [r5, #24]
     e40:	2b00      	cmp	r3, #0
     e42:	d102      	bne.n	e4a <__swsetup_r+0x1a>
     e44:	0028      	movs	r0, r5
     e46:	f7ff fb45 	bl	4d4 <__sinit>
     e4a:	4b32      	ldr	r3, [pc, #200]	; (f14 <__swsetup_r+0xe4>)
     e4c:	429c      	cmp	r4, r3
     e4e:	d10f      	bne.n	e70 <__swsetup_r+0x40>
     e50:	686c      	ldr	r4, [r5, #4]
     e52:	230c      	movs	r3, #12
     e54:	5ee2      	ldrsh	r2, [r4, r3]
     e56:	b293      	uxth	r3, r2
     e58:	0711      	lsls	r1, r2, #28
     e5a:	d42d      	bmi.n	eb8 <__swsetup_r+0x88>
     e5c:	06d9      	lsls	r1, r3, #27
     e5e:	d411      	bmi.n	e84 <__swsetup_r+0x54>
     e60:	2309      	movs	r3, #9
     e62:	2001      	movs	r0, #1
     e64:	6033      	str	r3, [r6, #0]
     e66:	3337      	adds	r3, #55	; 0x37
     e68:	4313      	orrs	r3, r2
     e6a:	81a3      	strh	r3, [r4, #12]
     e6c:	4240      	negs	r0, r0
     e6e:	bd70      	pop	{r4, r5, r6, pc}
     e70:	4b29      	ldr	r3, [pc, #164]	; (f18 <__swsetup_r+0xe8>)
     e72:	429c      	cmp	r4, r3
     e74:	d101      	bne.n	e7a <__swsetup_r+0x4a>
     e76:	68ac      	ldr	r4, [r5, #8]
     e78:	e7eb      	b.n	e52 <__swsetup_r+0x22>
     e7a:	4b28      	ldr	r3, [pc, #160]	; (f1c <__swsetup_r+0xec>)
     e7c:	429c      	cmp	r4, r3
     e7e:	d1e8      	bne.n	e52 <__swsetup_r+0x22>
     e80:	68ec      	ldr	r4, [r5, #12]
     e82:	e7e6      	b.n	e52 <__swsetup_r+0x22>
     e84:	075b      	lsls	r3, r3, #29
     e86:	d513      	bpl.n	eb0 <__swsetup_r+0x80>
     e88:	6b61      	ldr	r1, [r4, #52]	; 0x34
     e8a:	2900      	cmp	r1, #0
     e8c:	d008      	beq.n	ea0 <__swsetup_r+0x70>
     e8e:	0023      	movs	r3, r4
     e90:	3344      	adds	r3, #68	; 0x44
     e92:	4299      	cmp	r1, r3
     e94:	d002      	beq.n	e9c <__swsetup_r+0x6c>
     e96:	0030      	movs	r0, r6
     e98:	f000 f9bc 	bl	1214 <_free_r>
     e9c:	2300      	movs	r3, #0
     e9e:	6363      	str	r3, [r4, #52]	; 0x34
     ea0:	2224      	movs	r2, #36	; 0x24
     ea2:	89a3      	ldrh	r3, [r4, #12]
     ea4:	4393      	bics	r3, r2
     ea6:	81a3      	strh	r3, [r4, #12]
     ea8:	2300      	movs	r3, #0
     eaa:	6063      	str	r3, [r4, #4]
     eac:	6923      	ldr	r3, [r4, #16]
     eae:	6023      	str	r3, [r4, #0]
     eb0:	2308      	movs	r3, #8
     eb2:	89a2      	ldrh	r2, [r4, #12]
     eb4:	4313      	orrs	r3, r2
     eb6:	81a3      	strh	r3, [r4, #12]
     eb8:	6923      	ldr	r3, [r4, #16]
     eba:	2b00      	cmp	r3, #0
     ebc:	d10b      	bne.n	ed6 <__swsetup_r+0xa6>
     ebe:	21a0      	movs	r1, #160	; 0xa0
     ec0:	2280      	movs	r2, #128	; 0x80
     ec2:	89a3      	ldrh	r3, [r4, #12]
     ec4:	0089      	lsls	r1, r1, #2
     ec6:	0092      	lsls	r2, r2, #2
     ec8:	400b      	ands	r3, r1
     eca:	4293      	cmp	r3, r2
     ecc:	d003      	beq.n	ed6 <__swsetup_r+0xa6>
     ece:	0021      	movs	r1, r4
     ed0:	0030      	movs	r0, r6
     ed2:	f000 f93f 	bl	1154 <__smakebuf_r>
     ed6:	220c      	movs	r2, #12
     ed8:	5ea3      	ldrsh	r3, [r4, r2]
     eda:	2001      	movs	r0, #1
     edc:	001a      	movs	r2, r3
     ede:	b299      	uxth	r1, r3
     ee0:	4002      	ands	r2, r0
     ee2:	4203      	tst	r3, r0
     ee4:	d00f      	beq.n	f06 <__swsetup_r+0xd6>
     ee6:	2200      	movs	r2, #0
     ee8:	60a2      	str	r2, [r4, #8]
     eea:	6962      	ldr	r2, [r4, #20]
     eec:	4252      	negs	r2, r2
     eee:	61a2      	str	r2, [r4, #24]
     ef0:	2000      	movs	r0, #0
     ef2:	6922      	ldr	r2, [r4, #16]
     ef4:	4282      	cmp	r2, r0
     ef6:	d1ba      	bne.n	e6e <__swsetup_r+0x3e>
     ef8:	060a      	lsls	r2, r1, #24
     efa:	d5b8      	bpl.n	e6e <__swsetup_r+0x3e>
     efc:	2240      	movs	r2, #64	; 0x40
     efe:	4313      	orrs	r3, r2
     f00:	81a3      	strh	r3, [r4, #12]
     f02:	3801      	subs	r0, #1
     f04:	e7b3      	b.n	e6e <__swsetup_r+0x3e>
     f06:	0788      	lsls	r0, r1, #30
     f08:	d400      	bmi.n	f0c <__swsetup_r+0xdc>
     f0a:	6962      	ldr	r2, [r4, #20]
     f0c:	60a2      	str	r2, [r4, #8]
     f0e:	e7ef      	b.n	ef0 <__swsetup_r+0xc0>
     f10:	20000000 	andcs	r0, r0, r0
     f14:	00001374 	andeq	r1, r0, r4, ror r3
     f18:	00001394 	muleq	r0, r4, r3
     f1c:	00001354 	andeq	r1, r0, r4, asr r3

00000f20 <_close_r>:
     f20:	2300      	movs	r3, #0
     f22:	b570      	push	{r4, r5, r6, lr}
     f24:	4d06      	ldr	r5, [pc, #24]	; (f40 <_close_r+0x20>)
     f26:	0004      	movs	r4, r0
     f28:	0008      	movs	r0, r1
     f2a:	602b      	str	r3, [r5, #0]
     f2c:	f7ff f9c4 	bl	2b8 <_close>
     f30:	1c43      	adds	r3, r0, #1
     f32:	d103      	bne.n	f3c <_close_r+0x1c>
     f34:	682b      	ldr	r3, [r5, #0]
     f36:	2b00      	cmp	r3, #0
     f38:	d000      	beq.n	f3c <_close_r+0x1c>
     f3a:	6023      	str	r3, [r4, #0]
     f3c:	bd70      	pop	{r4, r5, r6, pc}
     f3e:	46c0      	nop			; (mov r8, r8)
     f40:	2000008c 	andcs	r0, r0, ip, lsl #1

00000f44 <__sflush_r>:
     f44:	b5f7      	push	{r0, r1, r2, r4, r5, r6, r7, lr}
     f46:	898b      	ldrh	r3, [r1, #12]
     f48:	0005      	movs	r5, r0
     f4a:	000c      	movs	r4, r1
     f4c:	071a      	lsls	r2, r3, #28
     f4e:	d45f      	bmi.n	1010 <__sflush_r+0xcc>
     f50:	684a      	ldr	r2, [r1, #4]
     f52:	2a00      	cmp	r2, #0
     f54:	dc04      	bgt.n	f60 <__sflush_r+0x1c>
     f56:	6c0a      	ldr	r2, [r1, #64]	; 0x40
     f58:	2a00      	cmp	r2, #0
     f5a:	dc01      	bgt.n	f60 <__sflush_r+0x1c>
     f5c:	2000      	movs	r0, #0
     f5e:	bdfe      	pop	{r1, r2, r3, r4, r5, r6, r7, pc}
     f60:	6ae7      	ldr	r7, [r4, #44]	; 0x2c
     f62:	2f00      	cmp	r7, #0
     f64:	d0fa      	beq.n	f5c <__sflush_r+0x18>
     f66:	2200      	movs	r2, #0
     f68:	2180      	movs	r1, #128	; 0x80
     f6a:	682e      	ldr	r6, [r5, #0]
     f6c:	602a      	str	r2, [r5, #0]
     f6e:	001a      	movs	r2, r3
     f70:	0149      	lsls	r1, r1, #5
     f72:	400a      	ands	r2, r1
     f74:	420b      	tst	r3, r1
     f76:	d034      	beq.n	fe2 <__sflush_r+0x9e>
     f78:	6d60      	ldr	r0, [r4, #84]	; 0x54
     f7a:	89a3      	ldrh	r3, [r4, #12]
     f7c:	075b      	lsls	r3, r3, #29
     f7e:	d506      	bpl.n	f8e <__sflush_r+0x4a>
     f80:	6863      	ldr	r3, [r4, #4]
     f82:	1ac0      	subs	r0, r0, r3
     f84:	6b63      	ldr	r3, [r4, #52]	; 0x34
     f86:	2b00      	cmp	r3, #0
     f88:	d001      	beq.n	f8e <__sflush_r+0x4a>
     f8a:	6c23      	ldr	r3, [r4, #64]	; 0x40
     f8c:	1ac0      	subs	r0, r0, r3
     f8e:	0002      	movs	r2, r0
     f90:	6a21      	ldr	r1, [r4, #32]
     f92:	2300      	movs	r3, #0
     f94:	0028      	movs	r0, r5
     f96:	6ae7      	ldr	r7, [r4, #44]	; 0x2c
     f98:	47b8      	blx	r7
     f9a:	89a1      	ldrh	r1, [r4, #12]
     f9c:	1c43      	adds	r3, r0, #1
     f9e:	d106      	bne.n	fae <__sflush_r+0x6a>
     fa0:	682b      	ldr	r3, [r5, #0]
     fa2:	2b1d      	cmp	r3, #29
     fa4:	d831      	bhi.n	100a <__sflush_r+0xc6>
     fa6:	4a2c      	ldr	r2, [pc, #176]	; (1058 <__sflush_r+0x114>)
     fa8:	40da      	lsrs	r2, r3
     faa:	07d3      	lsls	r3, r2, #31
     fac:	d52d      	bpl.n	100a <__sflush_r+0xc6>
     fae:	2300      	movs	r3, #0
     fb0:	6063      	str	r3, [r4, #4]
     fb2:	6923      	ldr	r3, [r4, #16]
     fb4:	6023      	str	r3, [r4, #0]
     fb6:	04cb      	lsls	r3, r1, #19
     fb8:	d505      	bpl.n	fc6 <__sflush_r+0x82>
     fba:	1c43      	adds	r3, r0, #1
     fbc:	d102      	bne.n	fc4 <__sflush_r+0x80>
     fbe:	682b      	ldr	r3, [r5, #0]
     fc0:	2b00      	cmp	r3, #0
     fc2:	d100      	bne.n	fc6 <__sflush_r+0x82>
     fc4:	6560      	str	r0, [r4, #84]	; 0x54
     fc6:	6b61      	ldr	r1, [r4, #52]	; 0x34
     fc8:	602e      	str	r6, [r5, #0]
     fca:	2900      	cmp	r1, #0
     fcc:	d0c6      	beq.n	f5c <__sflush_r+0x18>
     fce:	0023      	movs	r3, r4
     fd0:	3344      	adds	r3, #68	; 0x44
     fd2:	4299      	cmp	r1, r3
     fd4:	d002      	beq.n	fdc <__sflush_r+0x98>
     fd6:	0028      	movs	r0, r5
     fd8:	f000 f91c 	bl	1214 <_free_r>
     fdc:	2000      	movs	r0, #0
     fde:	6360      	str	r0, [r4, #52]	; 0x34
     fe0:	e7bd      	b.n	f5e <__sflush_r+0x1a>
     fe2:	2301      	movs	r3, #1
     fe4:	0028      	movs	r0, r5
     fe6:	6a21      	ldr	r1, [r4, #32]
     fe8:	47b8      	blx	r7
     fea:	1c43      	adds	r3, r0, #1
     fec:	d1c5      	bne.n	f7a <__sflush_r+0x36>
     fee:	682b      	ldr	r3, [r5, #0]
     ff0:	2b00      	cmp	r3, #0
     ff2:	d0c2      	beq.n	f7a <__sflush_r+0x36>
     ff4:	2b1d      	cmp	r3, #29
     ff6:	d001      	beq.n	ffc <__sflush_r+0xb8>
     ff8:	2b16      	cmp	r3, #22
     ffa:	d101      	bne.n	1000 <__sflush_r+0xbc>
     ffc:	602e      	str	r6, [r5, #0]
     ffe:	e7ad      	b.n	f5c <__sflush_r+0x18>
    1000:	2340      	movs	r3, #64	; 0x40
    1002:	89a2      	ldrh	r2, [r4, #12]
    1004:	4313      	orrs	r3, r2
    1006:	81a3      	strh	r3, [r4, #12]
    1008:	e7a9      	b.n	f5e <__sflush_r+0x1a>
    100a:	2340      	movs	r3, #64	; 0x40
    100c:	430b      	orrs	r3, r1
    100e:	e7fa      	b.n	1006 <__sflush_r+0xc2>
    1010:	690f      	ldr	r7, [r1, #16]
    1012:	2f00      	cmp	r7, #0
    1014:	d0a2      	beq.n	f5c <__sflush_r+0x18>
    1016:	680a      	ldr	r2, [r1, #0]
    1018:	600f      	str	r7, [r1, #0]
    101a:	1bd2      	subs	r2, r2, r7
    101c:	9201      	str	r2, [sp, #4]
    101e:	2200      	movs	r2, #0
    1020:	079b      	lsls	r3, r3, #30
    1022:	d100      	bne.n	1026 <__sflush_r+0xe2>
    1024:	694a      	ldr	r2, [r1, #20]
    1026:	60a2      	str	r2, [r4, #8]
    1028:	9b01      	ldr	r3, [sp, #4]
    102a:	2b00      	cmp	r3, #0
    102c:	dc00      	bgt.n	1030 <__sflush_r+0xec>
    102e:	e795      	b.n	f5c <__sflush_r+0x18>
    1030:	003a      	movs	r2, r7
    1032:	0028      	movs	r0, r5
    1034:	9b01      	ldr	r3, [sp, #4]
    1036:	6a21      	ldr	r1, [r4, #32]
    1038:	6aa6      	ldr	r6, [r4, #40]	; 0x28
    103a:	47b0      	blx	r6
    103c:	2800      	cmp	r0, #0
    103e:	dc06      	bgt.n	104e <__sflush_r+0x10a>
    1040:	2340      	movs	r3, #64	; 0x40
    1042:	2001      	movs	r0, #1
    1044:	89a2      	ldrh	r2, [r4, #12]
    1046:	4240      	negs	r0, r0
    1048:	4313      	orrs	r3, r2
    104a:	81a3      	strh	r3, [r4, #12]
    104c:	e787      	b.n	f5e <__sflush_r+0x1a>
    104e:	9b01      	ldr	r3, [sp, #4]
    1050:	183f      	adds	r7, r7, r0
    1052:	1a1b      	subs	r3, r3, r0
    1054:	9301      	str	r3, [sp, #4]
    1056:	e7e7      	b.n	1028 <__sflush_r+0xe4>
    1058:	20400001 	subcs	r0, r0, r1

0000105c <_fflush_r>:
    105c:	690b      	ldr	r3, [r1, #16]
    105e:	b570      	push	{r4, r5, r6, lr}
    1060:	0005      	movs	r5, r0
    1062:	000c      	movs	r4, r1
    1064:	2b00      	cmp	r3, #0
    1066:	d102      	bne.n	106e <_fflush_r+0x12>
    1068:	2500      	movs	r5, #0
    106a:	0028      	movs	r0, r5
    106c:	bd70      	pop	{r4, r5, r6, pc}
    106e:	2800      	cmp	r0, #0
    1070:	d004      	beq.n	107c <_fflush_r+0x20>
    1072:	6983      	ldr	r3, [r0, #24]
    1074:	2b00      	cmp	r3, #0
    1076:	d101      	bne.n	107c <_fflush_r+0x20>
    1078:	f7ff fa2c 	bl	4d4 <__sinit>
    107c:	4b14      	ldr	r3, [pc, #80]	; (10d0 <_fflush_r+0x74>)
    107e:	429c      	cmp	r4, r3
    1080:	d11b      	bne.n	10ba <_fflush_r+0x5e>
    1082:	686c      	ldr	r4, [r5, #4]
    1084:	220c      	movs	r2, #12
    1086:	5ea3      	ldrsh	r3, [r4, r2]
    1088:	2b00      	cmp	r3, #0
    108a:	d0ed      	beq.n	1068 <_fflush_r+0xc>
    108c:	6e62      	ldr	r2, [r4, #100]	; 0x64
    108e:	07d2      	lsls	r2, r2, #31
    1090:	d404      	bmi.n	109c <_fflush_r+0x40>
    1092:	059b      	lsls	r3, r3, #22
    1094:	d402      	bmi.n	109c <_fflush_r+0x40>
    1096:	6da0      	ldr	r0, [r4, #88]	; 0x58
    1098:	f7ff fabd 	bl	616 <__retarget_lock_acquire_recursive>
    109c:	0028      	movs	r0, r5
    109e:	0021      	movs	r1, r4
    10a0:	f7ff ff50 	bl	f44 <__sflush_r>
    10a4:	6e63      	ldr	r3, [r4, #100]	; 0x64
    10a6:	0005      	movs	r5, r0
    10a8:	07db      	lsls	r3, r3, #31
    10aa:	d4de      	bmi.n	106a <_fflush_r+0xe>
    10ac:	89a3      	ldrh	r3, [r4, #12]
    10ae:	059b      	lsls	r3, r3, #22
    10b0:	d4db      	bmi.n	106a <_fflush_r+0xe>
    10b2:	6da0      	ldr	r0, [r4, #88]	; 0x58
    10b4:	f7ff fab0 	bl	618 <__retarget_lock_release_recursive>
    10b8:	e7d7      	b.n	106a <_fflush_r+0xe>
    10ba:	4b06      	ldr	r3, [pc, #24]	; (10d4 <_fflush_r+0x78>)
    10bc:	429c      	cmp	r4, r3
    10be:	d101      	bne.n	10c4 <_fflush_r+0x68>
    10c0:	68ac      	ldr	r4, [r5, #8]
    10c2:	e7df      	b.n	1084 <_fflush_r+0x28>
    10c4:	4b04      	ldr	r3, [pc, #16]	; (10d8 <_fflush_r+0x7c>)
    10c6:	429c      	cmp	r4, r3
    10c8:	d1dc      	bne.n	1084 <_fflush_r+0x28>
    10ca:	68ec      	ldr	r4, [r5, #12]
    10cc:	e7da      	b.n	1084 <_fflush_r+0x28>
    10ce:	46c0      	nop			; (mov r8, r8)
    10d0:	00001374 	andeq	r1, r0, r4, ror r3
    10d4:	00001394 	muleq	r0, r4, r3
    10d8:	00001354 	andeq	r1, r0, r4, asr r3

000010dc <_lseek_r>:
    10dc:	b570      	push	{r4, r5, r6, lr}
    10de:	0004      	movs	r4, r0
    10e0:	0008      	movs	r0, r1
    10e2:	0011      	movs	r1, r2
    10e4:	001a      	movs	r2, r3
    10e6:	2300      	movs	r3, #0
    10e8:	4d05      	ldr	r5, [pc, #20]	; (1100 <_lseek_r+0x24>)
    10ea:	602b      	str	r3, [r5, #0]
    10ec:	f7ff f8fc 	bl	2e8 <_lseek>
    10f0:	1c43      	adds	r3, r0, #1
    10f2:	d103      	bne.n	10fc <_lseek_r+0x20>
    10f4:	682b      	ldr	r3, [r5, #0]
    10f6:	2b00      	cmp	r3, #0
    10f8:	d000      	beq.n	10fc <_lseek_r+0x20>
    10fa:	6023      	str	r3, [r4, #0]
    10fc:	bd70      	pop	{r4, r5, r6, pc}
    10fe:	46c0      	nop			; (mov r8, r8)
    1100:	2000008c 	andcs	r0, r0, ip, lsl #1

00001104 <__swhatbuf_r>:
    1104:	b570      	push	{r4, r5, r6, lr}
    1106:	000e      	movs	r6, r1
    1108:	001d      	movs	r5, r3
    110a:	230e      	movs	r3, #14
    110c:	5ec9      	ldrsh	r1, [r1, r3]
    110e:	0014      	movs	r4, r2
    1110:	b096      	sub	sp, #88	; 0x58
    1112:	2900      	cmp	r1, #0
    1114:	da08      	bge.n	1128 <__swhatbuf_r+0x24>
    1116:	220c      	movs	r2, #12
    1118:	5eb3      	ldrsh	r3, [r6, r2]
    111a:	2200      	movs	r2, #0
    111c:	602a      	str	r2, [r5, #0]
    111e:	061b      	lsls	r3, r3, #24
    1120:	d411      	bmi.n	1146 <__swhatbuf_r+0x42>
    1122:	2380      	movs	r3, #128	; 0x80
    1124:	00db      	lsls	r3, r3, #3
    1126:	e00f      	b.n	1148 <__swhatbuf_r+0x44>
    1128:	466a      	mov	r2, sp
    112a:	f000 f8d1 	bl	12d0 <_fstat_r>
    112e:	2800      	cmp	r0, #0
    1130:	dbf1      	blt.n	1116 <__swhatbuf_r+0x12>
    1132:	23f0      	movs	r3, #240	; 0xf0
    1134:	9901      	ldr	r1, [sp, #4]
    1136:	021b      	lsls	r3, r3, #8
    1138:	4019      	ands	r1, r3
    113a:	4b05      	ldr	r3, [pc, #20]	; (1150 <__swhatbuf_r+0x4c>)
    113c:	18c9      	adds	r1, r1, r3
    113e:	424b      	negs	r3, r1
    1140:	4159      	adcs	r1, r3
    1142:	6029      	str	r1, [r5, #0]
    1144:	e7ed      	b.n	1122 <__swhatbuf_r+0x1e>
    1146:	2340      	movs	r3, #64	; 0x40
    1148:	2000      	movs	r0, #0
    114a:	6023      	str	r3, [r4, #0]
    114c:	b016      	add	sp, #88	; 0x58
    114e:	bd70      	pop	{r4, r5, r6, pc}
    1150:	ffffe000 			; <UNDEFINED> instruction: 0xffffe000

00001154 <__smakebuf_r>:
    1154:	b5f7      	push	{r0, r1, r2, r4, r5, r6, r7, lr}
    1156:	2602      	movs	r6, #2
    1158:	898b      	ldrh	r3, [r1, #12]
    115a:	0005      	movs	r5, r0
    115c:	000c      	movs	r4, r1
    115e:	4233      	tst	r3, r6
    1160:	d006      	beq.n	1170 <__smakebuf_r+0x1c>
    1162:	0023      	movs	r3, r4
    1164:	3347      	adds	r3, #71	; 0x47
    1166:	6023      	str	r3, [r4, #0]
    1168:	6123      	str	r3, [r4, #16]
    116a:	2301      	movs	r3, #1
    116c:	6163      	str	r3, [r4, #20]
    116e:	bdf7      	pop	{r0, r1, r2, r4, r5, r6, r7, pc}
    1170:	466a      	mov	r2, sp
    1172:	ab01      	add	r3, sp, #4
    1174:	f7ff ffc6 	bl	1104 <__swhatbuf_r>
    1178:	9900      	ldr	r1, [sp, #0]
    117a:	0007      	movs	r7, r0
    117c:	0028      	movs	r0, r5
    117e:	f7ff fa4d 	bl	61c <_malloc_r>
    1182:	2800      	cmp	r0, #0
    1184:	d108      	bne.n	1198 <__smakebuf_r+0x44>
    1186:	220c      	movs	r2, #12
    1188:	5ea3      	ldrsh	r3, [r4, r2]
    118a:	059a      	lsls	r2, r3, #22
    118c:	d4ef      	bmi.n	116e <__smakebuf_r+0x1a>
    118e:	2203      	movs	r2, #3
    1190:	4393      	bics	r3, r2
    1192:	431e      	orrs	r6, r3
    1194:	81a6      	strh	r6, [r4, #12]
    1196:	e7e4      	b.n	1162 <__smakebuf_r+0xe>
    1198:	4b0f      	ldr	r3, [pc, #60]	; (11d8 <__smakebuf_r+0x84>)
    119a:	62ab      	str	r3, [r5, #40]	; 0x28
    119c:	2380      	movs	r3, #128	; 0x80
    119e:	89a2      	ldrh	r2, [r4, #12]
    11a0:	6020      	str	r0, [r4, #0]
    11a2:	4313      	orrs	r3, r2
    11a4:	81a3      	strh	r3, [r4, #12]
    11a6:	9b00      	ldr	r3, [sp, #0]
    11a8:	6120      	str	r0, [r4, #16]
    11aa:	6163      	str	r3, [r4, #20]
    11ac:	9b01      	ldr	r3, [sp, #4]
    11ae:	2b00      	cmp	r3, #0
    11b0:	d00d      	beq.n	11ce <__smakebuf_r+0x7a>
    11b2:	0028      	movs	r0, r5
    11b4:	230e      	movs	r3, #14
    11b6:	5ee1      	ldrsh	r1, [r4, r3]
    11b8:	f000 f89c 	bl	12f4 <_isatty_r>
    11bc:	2800      	cmp	r0, #0
    11be:	d006      	beq.n	11ce <__smakebuf_r+0x7a>
    11c0:	2203      	movs	r2, #3
    11c2:	89a3      	ldrh	r3, [r4, #12]
    11c4:	4393      	bics	r3, r2
    11c6:	001a      	movs	r2, r3
    11c8:	2301      	movs	r3, #1
    11ca:	4313      	orrs	r3, r2
    11cc:	81a3      	strh	r3, [r4, #12]
    11ce:	89a0      	ldrh	r0, [r4, #12]
    11d0:	4307      	orrs	r7, r0
    11d2:	81a7      	strh	r7, [r4, #12]
    11d4:	e7cb      	b.n	116e <__smakebuf_r+0x1a>
    11d6:	46c0      	nop			; (mov r8, r8)
    11d8:	00000459 	andeq	r0, r0, r9, asr r4

000011dc <memchr>:
    11dc:	b2c9      	uxtb	r1, r1
    11de:	1882      	adds	r2, r0, r2
    11e0:	4290      	cmp	r0, r2
    11e2:	d101      	bne.n	11e8 <memchr+0xc>
    11e4:	2000      	movs	r0, #0
    11e6:	4770      	bx	lr
    11e8:	7803      	ldrb	r3, [r0, #0]
    11ea:	428b      	cmp	r3, r1
    11ec:	d0fb      	beq.n	11e6 <memchr+0xa>
    11ee:	3001      	adds	r0, #1
    11f0:	e7f6      	b.n	11e0 <memchr+0x4>
	...

000011f4 <__malloc_lock>:
    11f4:	b510      	push	{r4, lr}
    11f6:	4802      	ldr	r0, [pc, #8]	; (1200 <__malloc_lock+0xc>)
    11f8:	f7ff fa0d 	bl	616 <__retarget_lock_acquire_recursive>
    11fc:	bd10      	pop	{r4, pc}
    11fe:	46c0      	nop			; (mov r8, r8)
    1200:	20000080 	andcs	r0, r0, r0, lsl #1

00001204 <__malloc_unlock>:
    1204:	b510      	push	{r4, lr}
    1206:	4802      	ldr	r0, [pc, #8]	; (1210 <__malloc_unlock+0xc>)
    1208:	f7ff fa06 	bl	618 <__retarget_lock_release_recursive>
    120c:	bd10      	pop	{r4, pc}
    120e:	46c0      	nop			; (mov r8, r8)
    1210:	20000080 	andcs	r0, r0, r0, lsl #1

00001214 <_free_r>:
    1214:	b570      	push	{r4, r5, r6, lr}
    1216:	0005      	movs	r5, r0
    1218:	2900      	cmp	r1, #0
    121a:	d010      	beq.n	123e <_free_r+0x2a>
    121c:	1f0c      	subs	r4, r1, #4
    121e:	6823      	ldr	r3, [r4, #0]
    1220:	2b00      	cmp	r3, #0
    1222:	da00      	bge.n	1226 <_free_r+0x12>
    1224:	18e4      	adds	r4, r4, r3
    1226:	0028      	movs	r0, r5
    1228:	f7ff ffe4 	bl	11f4 <__malloc_lock>
    122c:	4a1d      	ldr	r2, [pc, #116]	; (12a4 <_free_r+0x90>)
    122e:	6813      	ldr	r3, [r2, #0]
    1230:	2b00      	cmp	r3, #0
    1232:	d105      	bne.n	1240 <_free_r+0x2c>
    1234:	6063      	str	r3, [r4, #4]
    1236:	6014      	str	r4, [r2, #0]
    1238:	0028      	movs	r0, r5
    123a:	f7ff ffe3 	bl	1204 <__malloc_unlock>
    123e:	bd70      	pop	{r4, r5, r6, pc}
    1240:	42a3      	cmp	r3, r4
    1242:	d908      	bls.n	1256 <_free_r+0x42>
    1244:	6821      	ldr	r1, [r4, #0]
    1246:	1860      	adds	r0, r4, r1
    1248:	4283      	cmp	r3, r0
    124a:	d1f3      	bne.n	1234 <_free_r+0x20>
    124c:	6818      	ldr	r0, [r3, #0]
    124e:	685b      	ldr	r3, [r3, #4]
    1250:	1841      	adds	r1, r0, r1
    1252:	6021      	str	r1, [r4, #0]
    1254:	e7ee      	b.n	1234 <_free_r+0x20>
    1256:	001a      	movs	r2, r3
    1258:	685b      	ldr	r3, [r3, #4]
    125a:	2b00      	cmp	r3, #0
    125c:	d001      	beq.n	1262 <_free_r+0x4e>
    125e:	42a3      	cmp	r3, r4
    1260:	d9f9      	bls.n	1256 <_free_r+0x42>
    1262:	6811      	ldr	r1, [r2, #0]
    1264:	1850      	adds	r0, r2, r1
    1266:	42a0      	cmp	r0, r4
    1268:	d10b      	bne.n	1282 <_free_r+0x6e>
    126a:	6820      	ldr	r0, [r4, #0]
    126c:	1809      	adds	r1, r1, r0
    126e:	1850      	adds	r0, r2, r1
    1270:	6011      	str	r1, [r2, #0]
    1272:	4283      	cmp	r3, r0
    1274:	d1e0      	bne.n	1238 <_free_r+0x24>
    1276:	6818      	ldr	r0, [r3, #0]
    1278:	685b      	ldr	r3, [r3, #4]
    127a:	1841      	adds	r1, r0, r1
    127c:	6011      	str	r1, [r2, #0]
    127e:	6053      	str	r3, [r2, #4]
    1280:	e7da      	b.n	1238 <_free_r+0x24>
    1282:	42a0      	cmp	r0, r4
    1284:	d902      	bls.n	128c <_free_r+0x78>
    1286:	230c      	movs	r3, #12
    1288:	602b      	str	r3, [r5, #0]
    128a:	e7d5      	b.n	1238 <_free_r+0x24>
    128c:	6821      	ldr	r1, [r4, #0]
    128e:	1860      	adds	r0, r4, r1
    1290:	4283      	cmp	r3, r0
    1292:	d103      	bne.n	129c <_free_r+0x88>
    1294:	6818      	ldr	r0, [r3, #0]
    1296:	685b      	ldr	r3, [r3, #4]
    1298:	1841      	adds	r1, r0, r1
    129a:	6021      	str	r1, [r4, #0]
    129c:	6063      	str	r3, [r4, #4]
    129e:	6054      	str	r4, [r2, #4]
    12a0:	e7ca      	b.n	1238 <_free_r+0x24>
    12a2:	46c0      	nop			; (mov r8, r8)
    12a4:	20000084 	andcs	r0, r0, r4, lsl #1

000012a8 <_read_r>:
    12a8:	b570      	push	{r4, r5, r6, lr}
    12aa:	0004      	movs	r4, r0
    12ac:	0008      	movs	r0, r1
    12ae:	0011      	movs	r1, r2
    12b0:	001a      	movs	r2, r3
    12b2:	2300      	movs	r3, #0
    12b4:	4d05      	ldr	r5, [pc, #20]	; (12cc <_read_r+0x24>)
    12b6:	602b      	str	r3, [r5, #0]
    12b8:	f7fe ffd2 	bl	260 <_read>
    12bc:	1c43      	adds	r3, r0, #1
    12be:	d103      	bne.n	12c8 <_read_r+0x20>
    12c0:	682b      	ldr	r3, [r5, #0]
    12c2:	2b00      	cmp	r3, #0
    12c4:	d000      	beq.n	12c8 <_read_r+0x20>
    12c6:	6023      	str	r3, [r4, #0]
    12c8:	bd70      	pop	{r4, r5, r6, pc}
    12ca:	46c0      	nop			; (mov r8, r8)
    12cc:	2000008c 	andcs	r0, r0, ip, lsl #1

000012d0 <_fstat_r>:
    12d0:	2300      	movs	r3, #0
    12d2:	b570      	push	{r4, r5, r6, lr}
    12d4:	4d06      	ldr	r5, [pc, #24]	; (12f0 <_fstat_r+0x20>)
    12d6:	0004      	movs	r4, r0
    12d8:	0008      	movs	r0, r1
    12da:	0011      	movs	r1, r2
    12dc:	602b      	str	r3, [r5, #0]
    12de:	f7fe fff2 	bl	2c6 <_fstat>
    12e2:	1c43      	adds	r3, r0, #1
    12e4:	d103      	bne.n	12ee <_fstat_r+0x1e>
    12e6:	682b      	ldr	r3, [r5, #0]
    12e8:	2b00      	cmp	r3, #0
    12ea:	d000      	beq.n	12ee <_fstat_r+0x1e>
    12ec:	6023      	str	r3, [r4, #0]
    12ee:	bd70      	pop	{r4, r5, r6, pc}
    12f0:	2000008c 	andcs	r0, r0, ip, lsl #1

000012f4 <_isatty_r>:
    12f4:	2300      	movs	r3, #0
    12f6:	b570      	push	{r4, r5, r6, lr}
    12f8:	4d06      	ldr	r5, [pc, #24]	; (1314 <_isatty_r+0x20>)
    12fa:	0004      	movs	r4, r0
    12fc:	0008      	movs	r0, r1
    12fe:	602b      	str	r3, [r5, #0]
    1300:	f7fe ffec 	bl	2dc <_isatty>
    1304:	1c43      	adds	r3, r0, #1
    1306:	d103      	bne.n	1310 <_isatty_r+0x1c>
    1308:	682b      	ldr	r3, [r5, #0]
    130a:	2b00      	cmp	r3, #0
    130c:	d000      	beq.n	1310 <_isatty_r+0x1c>
    130e:	6023      	str	r3, [r4, #0]
    1310:	bd70      	pop	{r4, r5, r6, pc}
    1312:	46c0      	nop			; (mov r8, r8)
    1314:	2000008c 	andcs	r0, r0, ip, lsl #1

00001318 <_sbrk>:
    1318:	4a04      	ldr	r2, [pc, #16]	; (132c <_sbrk+0x14>)
    131a:	0003      	movs	r3, r0
    131c:	6810      	ldr	r0, [r2, #0]
    131e:	2800      	cmp	r0, #0
    1320:	d002      	beq.n	1328 <_sbrk+0x10>
    1322:	18c3      	adds	r3, r0, r3
    1324:	6013      	str	r3, [r2, #0]
    1326:	4770      	bx	lr
    1328:	4801      	ldr	r0, [pc, #4]	; (1330 <_sbrk+0x18>)
    132a:	e7fa      	b.n	1322 <_sbrk+0xa>
    132c:	20000090 	mulcs	r0, r0, r0
    1330:	20000098 	mulcs	r0, r8, r0

00001334 <_init>:
    1334:	b5f8      	push	{r3, r4, r5, r6, r7, lr}
    1336:	46c0      	nop			; (mov r8, r8)
    1338:	bcf8      	pop	{r3, r4, r5, r6, r7}
    133a:	bc08      	pop	{r3}
    133c:	469e      	mov	lr, r3
    133e:	4770      	bx	lr

00001340 <_fini>:
    1340:	b5f8      	push	{r3, r4, r5, r6, r7, lr}
    1342:	46c0      	nop			; (mov r8, r8)
    1344:	bcf8      	pop	{r3, r4, r5, r6, r7}
    1346:	bc08      	pop	{r3}
    1348:	469e      	mov	lr, r3
    134a:	4770      	bx	lr

Disassembly of section .rodata:

0000134c <_global_impure_ptr-0x4>:
    134c:	00000a63 	andeq	r0, r0, r3, ror #20

00001350 <_global_impure_ptr>:
    1350:	20000004 	andcs	r0, r0, r4

00001354 <__sf_fake_stderr>:
	...

00001374 <__sf_fake_stdin>:
	...

00001394 <__sf_fake_stdout>:
	...
    13b4:	2b302d23 	blcs	c0c848 <_sidata+0xc0b458>
    13b8:	6c680020 	stclvs	0, cr0, [r8], #-128	; 0xffffff80
    13bc:	6665004c 	strbtvs	r0, [r5], -ip, asr #32
    13c0:	47464567 	strbmi	r4, [r6, -r7, ror #10]
    13c4:	32313000 	eorscc	r3, r1, #0
    13c8:	36353433 			; <UNDEFINED> instruction: 0x36353433
    13cc:	41393837 	teqmi	r9, r7, lsr r8
    13d0:	45444342 	strbmi	r4, [r4, #-834]	; 0xfffffcbe
    13d4:	31300046 	teqcc	r0, r6, asr #32
    13d8:	35343332 	ldrcc	r3, [r4, #-818]!	; 0xfffffcce
    13dc:	39383736 	ldmdbcc	r8!, {r1, r2, r4, r5, r8, r9, sl, ip, sp}
    13e0:	64636261 	strbtvs	r6, [r3], #-609	; 0xfffffd9f
    13e4:	00006665 	andeq	r6, r0, r5, ror #12

Disassembly of section .init_array:

000013e8 <__frame_dummy_init_array_entry>:
    13e8:	00000079 	andeq	r0, r0, r9, ror r0

Disassembly of section .fini_array:

000013ec <__do_global_dtors_aux_fini_array_entry>:
    13ec:	00000051 	andeq	r0, r0, r1, asr r0

Disassembly of section .data:

20000000 <_impure_ptr>:
20000000:	20000004 	andcs	r0, r0, r4

20000004 <impure_data>:
20000004:	00000000 	andeq	r0, r0, r0
20000008:	00001374 	andeq	r1, r0, r4, ror r3
2000000c:	00001394 	muleq	r0, r4, r3
20000010:	00001354 	andeq	r1, r0, r4, asr r3
	...

Disassembly of section .bss:

20000064 <__bss_start__>:
20000064:	00000000 	andeq	r0, r0, r0

20000068 <object.0>:
	...

20000080 <__lock___malloc_recursive_mutex>:
	...

20000081 <__lock___sfp_recursive_mutex>:
	...

20000082 <__lock___sinit_recursive_mutex>:
	...

20000084 <__malloc_free_list>:
20000084:	00000000 	andeq	r0, r0, r0

20000088 <__malloc_sbrk_start>:
20000088:	00000000 	andeq	r0, r0, r0

2000008c <errno>:
2000008c:	00000000 	andeq	r0, r0, r0

20000090 <heap_end.0>:
20000090:	00000000 	andeq	r0, r0, r0

Disassembly of section ._user_heap_stack:

20000094 <end-0x4>:
20000094:	00000000 	andeq	r0, r0, r0

20000098 <end>:
	...

Disassembly of section .ARM.attributes:

00000000 <.ARM.attributes>:
   0:	00002741 	andeq	r2, r0, r1, asr #14
   4:	61656100 	cmnvs	r5, r0, lsl #2
   8:	01006962 	tsteq	r0, r2, ror #18
   c:	0000001d 	andeq	r0, r0, sp, lsl r0
  10:	2d533605 	ldclcs	6, cr3, [r3, #-20]	; 0xffffffec
  14:	0c06004d 	stceq	0, cr0, [r6], {77}	; 0x4d
  18:	01094d07 	tsteq	r9, r7, lsl #26
  1c:	01140412 	tsteq	r4, r2, lsl r4
  20:	03170115 	tsteq	r7, #1073741829	; 0x40000005
  24:	011a0118 	tsteq	sl, r8, lsl r1

Disassembly of section .debug_line:

00000000 <.debug_line>:
   0:	00000085 	andeq	r0, r0, r5, lsl #1
   4:	002c0003 	eoreq	r0, ip, r3
   8:	01020000 	mrseq	r0, (UNDEF: 2)
   c:	000d0efb 	strdeq	r0, [sp], -fp
  10:	01010101 	tsteq	r1, r1, lsl #2
  14:	01000000 	mrseq	r0, (UNDEF: 0)
  18:	61010000 	mrsvs	r0, (UNDEF: 1)
  1c:	2f686372 	svccs	0x00686372
  20:	74726f63 	ldrbtvc	r6, [r2], #-3939	; 0xfffff09d
  24:	6d2d7865 	stcvs	8, cr7, [sp, #-404]!	; 0xfffffe6c
  28:	62000031 	andvs	r0, r0, #49	; 0x31
  2c:	2e746f6f 	cdpcs	15, 7, cr6, cr4, cr15, {3}
  30:	00010053 	andeq	r0, r1, r3, asr r0
  34:	05000000 	streq	r0, [r0, #-0]
  38:	0001c402 	andeq	ip, r1, r2, lsl #8
  3c:	01360300 	teqeq	r6, r0, lsl #6
  40:	21212321 			; <UNDEFINED> instruction: 0x21212321
  44:	21232121 			; <UNDEFINED> instruction: 0x21232121
  48:	21212321 			; <UNDEFINED> instruction: 0x21212321
  4c:	21212123 			; <UNDEFINED> instruction: 0x21212123
  50:	21232123 			; <UNDEFINED> instruction: 0x21232123
  54:	31303023 	teqcc	r0, r3, lsr #32
  58:	32205603 	eorcc	r5, r0, #3145728	; 0x300000
  5c:	0f032f2f 	svceq	0x00032f2f
  60:	02022f2e 	andeq	r2, r2, #46, 30	; 0xb8
  64:	00010100 	andeq	r0, r1, r0, lsl #2
  68:	02140205 	andseq	r0, r4, #1342177280	; 0x50000000
  6c:	e9030000 	stmdb	r3, {}	; <UNPREDICTABLE>
  70:	21210100 			; <UNDEFINED> instruction: 0x21210100
  74:	222f2121 	eorcs	r2, pc, #1073741832	; 0x40000008
  78:	200f0330 	andcs	r0, pc, r0, lsr r3	; <UNPREDICTABLE>
  7c:	21212122 			; <UNDEFINED> instruction: 0x21212122
  80:	22212121 	eorcs	r2, r1, #1073741832	; 0x40000008
  84:	01000102 	tsteq	r0, r2, lsl #2
  88:	00004701 	andeq	r4, r0, r1, lsl #14
  8c:	24000300 	strcs	r0, [r0], #-768	; 0xfffffd00
  90:	02000000 	andeq	r0, r0, #0
  94:	0d0efb01 	vstreq	d15, [lr, #-4]
  98:	01010100 	mrseq	r0, (UNDEF: 17)
  9c:	00000001 	andeq	r0, r0, r1
  a0:	01000001 	tsteq	r0, r1
  a4:	00656574 	rsbeq	r6, r5, r4, ror r5
  a8:	65657400 	strbvs	r7, [r5, #-1024]!	; 0xfffffc00
  ac:	7273695f 	rsbsvc	r6, r3, #1556480	; 0x17c000
  b0:	0100532e 	tsteq	r0, lr, lsr #6
  b4:	00000000 	andeq	r0, r0, r0
  b8:	023c0205 	eorseq	r0, ip, #1342177280	; 0x50000000
  bc:	1a030000 	bne	c00c4 <_sidata+0xbecd4>
  c0:	21212101 			; <UNDEFINED> instruction: 0x21212101
  c4:	21213021 			; <UNDEFINED> instruction: 0x21213021
  c8:	20780321 	rsbscs	r0, r8, r1, lsr #6
  cc:	022f322f 	eoreq	r3, pc, #-268435454	; 0xf0000002
  d0:	01010002 	tsteq	r1, r2
  d4:	00000350 	andeq	r0, r0, r0, asr r3
  d8:	01410003 	cmpeq	r1, r3
  dc:	01020000 	mrseq	r0, (UNDEF: 2)
  e0:	000d0efb 	strdeq	r0, [sp], -fp
  e4:	01010101 	tsteq	r1, r1, lsl #2
  e8:	01000000 	mrseq	r0, (UNDEF: 0)
  ec:	61010000 	mrsvs	r0, (UNDEF: 1)
  f0:	2f686372 	svccs	0x00686372
  f4:	74726f63 	ldrbtvc	r6, [r2], #-3939	; 0xfffff09d
  f8:	6d2d7865 	stcvs	8, cr7, [sp, #-404]!	; 0xfffffe6c
  fc:	682f0031 	stmdavs	pc!, {r0, r4, r5}	; <UNPREDICTABLE>
 100:	2f656d6f 	svccs	0x00656d6f
 104:	72657073 	rsbvc	r7, r5, #115	; 0x73
 108:	61726965 	cmnvs	r2, r5, ror #18
 10c:	6f72702f 	svcvs	0x0072702f
 110:	7463656a 	strbtvc	r6, [r3], #-1386	; 0xfffffa96
 114:	706f2f73 	rsbvc	r2, pc, r3, ror pc	; <UNPREDICTABLE>
 118:	63672f74 	cmnvs	r7, #116, 30	; 0x1d0
 11c:	72612d63 	rsbvc	r2, r1, #6336	; 0x18c0
 120:	6f6e2d6d 	svcvs	0x006e2d6d
 124:	652d656e 	strvs	r6, [sp, #-1390]!	; 0xfffffa92
 128:	2d696261 	sfmcs	f6, 2, [r9, #-388]!	; 0xfffffe7c
 12c:	322d3031 	eorcc	r3, sp, #49	; 0x31
 130:	2d303230 	lfmcs	f3, 4, [r0, #-192]!	; 0xffffff40
 134:	6d2d3471 	cfstrsvs	mvf3, [sp, #-452]!	; 0xfffffe3c
 138:	726f6a61 	rsbvc	r6, pc, #397312	; 0x61000
 13c:	6d72612f 	ldfvse	f6, [r2, #-188]!	; 0xffffff44
 140:	6e6f6e2d 	cdpvs	14, 6, cr6, cr15, cr13, {1}
 144:	61652d65 	cmnvs	r5, r5, ror #26
 148:	692f6962 	stmdbvs	pc!, {r1, r5, r6, r8, fp, sp, lr}	; <UNPREDICTABLE>
 14c:	756c636e 	strbvc	r6, [ip, #-878]!	; 0xfffffc92
 150:	6d2f6564 	cfstr32vs	mvfx6, [pc, #-400]!	; ffffffc8 <_estack+0xdfffefc8>
 154:	69686361 	stmdbvs	r8!, {r0, r5, r6, r8, r9, sp, lr}^
 158:	2f00656e 	svccs	0x0000656e
 15c:	656d6f68 	strbvs	r6, [sp, #-3944]!	; 0xfffff098
 160:	6570732f 	ldrbvs	r7, [r0, #-815]!	; 0xfffffcd1
 164:	72696572 	rsbvc	r6, r9, #478150656	; 0x1c800000
 168:	72702f61 	rsbsvc	r2, r0, #388	; 0x184
 16c:	63656a6f 	cmnvs	r5, #454656	; 0x6f000
 170:	6f2f7374 	svcvs	0x002f7374
 174:	672f7470 			; <UNDEFINED> instruction: 0x672f7470
 178:	612d6363 			; <UNDEFINED> instruction: 0x612d6363
 17c:	6e2d6d72 	mcrvs	13, 1, r6, cr13, cr2, {3}
 180:	2d656e6f 	stclcs	14, cr6, [r5, #-444]!	; 0xfffffe44
 184:	69626165 	stmdbvs	r2!, {r0, r2, r5, r6, r8, sp, lr}^
 188:	2d30312d 	ldfcss	f3, [r0, #-180]!	; 0xffffff4c
 18c:	30323032 	eorscc	r3, r2, r2, lsr r0
 190:	2d34712d 	ldfcss	f7, [r4, #-180]!	; 0xffffff4c
 194:	6f6a616d 	svcvs	0x006a616d
 198:	72612f72 	rsbvc	r2, r1, #456	; 0x1c8
 19c:	6f6e2d6d 	svcvs	0x006e2d6d
 1a0:	652d656e 	strvs	r6, [sp, #-1390]!	; 0xfffffa92
 1a4:	2f696261 	svccs	0x00696261
 1a8:	6c636e69 	stclvs	14, cr6, [r3], #-420	; 0xfffffe5c
 1ac:	2f656475 	svccs	0x00656475
 1b0:	00737973 	rsbseq	r7, r3, r3, ror r9
 1b4:	77656e00 	strbvc	r6, [r5, -r0, lsl #28]!
 1b8:	2e62696c 	vnmulcs.f16	s13, s4, s25	; <UNPREDICTABLE>
 1bc:	00010063 	andeq	r0, r1, r3, rrx
 1c0:	65645f00 	strbvs	r5, [r4, #-3840]!	; 0xfffff100
 1c4:	6c756166 	ldfvse	f6, [r5], #-408	; 0xfffffe68
 1c8:	79745f74 	ldmdbvc	r4!, {r2, r4, r5, r6, r8, r9, sl, fp, ip, lr}^
 1cc:	2e736570 	mrccs	5, 3, r6, cr3, cr0, {3}
 1d0:	00020068 	andeq	r0, r2, r8, rrx
 1d4:	79745f00 	ldmdbvc	r4!, {r8, r9, sl, fp, ip, lr}^
 1d8:	2e736570 	mrccs	5, 3, r6, cr3, cr0, {3}
 1dc:	00030068 	andeq	r0, r3, r8, rrx
 1e0:	69745f00 	ldmdbvs	r4!, {r8, r9, sl, fp, ip, lr}^
 1e4:	6176656d 	cmnvs	r6, sp, ror #10
 1e8:	00682e6c 	rsbeq	r2, r8, ip, ror #28
 1ec:	5f000003 	svcpl	0x00000003
 1f0:	656d6974 	strbvs	r6, [sp, #-2420]!	; 0xfffff68c
 1f4:	63657073 	cmnvs	r5, #115	; 0x73
 1f8:	0300682e 	movweq	r6, #2094	; 0x82e
 1fc:	79740000 	ldmdbvc	r4!, {}^	; <UNPREDICTABLE>
 200:	2e736570 	mrccs	5, 3, r6, cr3, cr0, {3}
 204:	00030068 	andeq	r0, r3, r8, rrx
 208:	61747300 	cmnvs	r4, r0, lsl #6
 20c:	00682e74 	rsbeq	r2, r8, r4, ror lr
 210:	74000003 	strvc	r0, [r0], #-3
 214:	73656d69 	cmnvc	r5, #6720	; 0x1a40
 218:	0300682e 	movweq	r6, #2094	; 0x82e
 21c:	05000000 	streq	r0, [r0, #-0]
 220:	02050001 	andeq	r0, r5, #1
 224:	00000000 	andeq	r0, r0, r0
 228:	13011903 	movwne	r1, #6403	; 0x1903
 22c:	01000202 	tsteq	r0, r2, lsl #4
 230:	00010501 	andeq	r0, r1, r1, lsl #10
 234:	00000205 	andeq	r0, r0, r5, lsl #4
 238:	1d030000 	stcne	0, cr0, [r3, #-0]
 23c:	13090501 	movwne	r0, #38145	; 0x9501
 240:	02210105 	eoreq	r0, r1, #1073741825	; 0x40000001
 244:	01010002 	tsteq	r1, r2
 248:	05000105 	streq	r0, [r0, #-261]	; 0xfffffefb
 24c:	00000002 	andeq	r0, r0, r2
 250:	01220300 			; <UNDEFINED> instruction: 0x01220300
 254:	054b0205 	strbeq	r0, [fp, #-517]	; 0xfffffdfb
 258:	09053c08 	stmdbeq	r5, {r3, sl, fp, ip, sp}
 25c:	2f01052f 	svccs	0x0001052f
 260:	01000302 	tsteq	r0, r2, lsl #6
 264:	00010501 	andeq	r0, r1, r1, lsl #10
 268:	00000205 	andeq	r0, r0, r5, lsl #4
 26c:	28030000 	stmdacs	r3, {}	; <UNPREDICTABLE>
 270:	3d020501 	cfstr32cc	mvfx0, [r2, #-4]
 274:	02000805 	andeq	r0, r0, #327680	; 0x50000
 278:	02750104 	rsbseq	r0, r5, #4, 2
 27c:	01010001 	tsteq	r1, r1
 280:	05000105 	streq	r0, [r0, #-261]	; 0xfffffefb
 284:	00026002 	andeq	r6, r2, r2
 288:	012e0300 			; <UNDEFINED> instruction: 0x012e0300
 28c:	054d0f05 	strbeq	r0, [sp, #-3845]	; 0xfffff0fb
 290:	2a052e02 	bcs	14baa0 <_sidata+0x14a6b0>
 294:	03040200 	movweq	r0, #16896	; 0x4200
 298:	00020520 	andeq	r0, r2, r0, lsr #10
 29c:	3c010402 	cfstrscc	mvf0, [r1], {2}
 2a0:	054f0805 	strbeq	r0, [pc, #-2053]	; fffffaa3 <_estack+0xdfffeaa3>
 2a4:	03022101 	movweq	r2, #8449	; 0x2101
 2a8:	05010100 	streq	r0, [r1, #-256]	; 0xffffff00
 2ac:	02050001 	andeq	r0, r5, #1
 2b0:	00000284 	andeq	r0, r0, r4, lsl #5
 2b4:	05013a03 	streq	r3, [r1, #-2563]	; 0xfffff5fd
 2b8:	02055b0f 	andeq	r5, r5, #15360	; 0x3c00
 2bc:	001b052e 	andseq	r0, fp, lr, lsr #10
 2c0:	22030402 	andcs	r0, r3, #33554432	; 0x2000000
 2c4:	02000605 	andeq	r0, r0, #5242880	; 0x500000
 2c8:	053c0304 	ldreq	r0, [ip, #-772]!	; 0xfffffcfc
 2cc:	0402002a 	streq	r0, [r2], #-42	; 0xffffffd6
 2d0:	02054803 	andeq	r4, r5, #196608	; 0x30000
 2d4:	01040200 	mrseq	r0, R12_usr
 2d8:	4e09053c 	mcrmi	5, 0, r0, cr9, cr12, {1}
 2dc:	02210105 	eoreq	r0, r1, #1073741825	; 0x40000001
 2e0:	01010003 	tsteq	r1, r3
 2e4:	05000105 	streq	r0, [r0, #-261]	; 0xfffffefb
 2e8:	0002b802 	andeq	fp, r2, r2, lsl #16
 2ec:	00c50300 	sbceq	r0, r5, r0, lsl #6
 2f0:	2f090501 	svccs	0x00090501
 2f4:	022f0105 	eoreq	r0, pc, #1073741825	; 0x40000001
 2f8:	01010003 	tsteq	r1, r3
 2fc:	05000105 	streq	r0, [r0, #-261]	; 0xfffffefb
 300:	0002c602 	andeq	ip, r2, r2, lsl #12
 304:	00cb0300 	sbceq	r0, fp, r0, lsl #6
 308:	3d0e0501 	cfstr32cc	mvfx0, [lr, #-4]
 30c:	054b0905 	strbeq	r0, [fp, #-2309]	; 0xfffff6fb
 310:	03022101 	movweq	r2, #8449	; 0x2101
 314:	05010100 	streq	r0, [r1, #-256]	; 0xffffff00
 318:	02050001 	andeq	r0, r5, #1
 31c:	000002dc 	ldrdeq	r0, [r0], -ip
 320:	0100d103 	tsteq	r0, r3, lsl #2
 324:	052f0905 	streq	r0, [pc, #-2309]!	; fffffa27 <_estack+0xdfffea27>
 328:	03022101 	movweq	r2, #8449	; 0x2101
 32c:	05010100 	streq	r0, [r1, #-256]	; 0xffffff00
 330:	02050001 	andeq	r0, r5, #1
 334:	000002e8 	andeq	r0, r0, r8, ror #5
 338:	0100d603 	tsteq	r0, r3, lsl #12
 33c:	054b0905 	strbeq	r0, [fp, #-2309]	; 0xfffff6fb
 340:	03022101 	movweq	r2, #8449	; 0x2101
 344:	05010100 	streq	r0, [r1, #-256]	; 0xffffff00
 348:	02050001 	andeq	r0, r5, #1
 34c:	00000000 	andeq	r0, r0, r0
 350:	0100db03 	tsteq	r0, r3, lsl #22
 354:	053e0905 	ldreq	r0, [lr, #-2309]!	; 0xfffff6fb
 358:	04022f01 	streq	r2, [r2], #-3841	; 0xfffff0ff
 35c:	05010100 	streq	r0, [r1, #-256]	; 0xffffff00
 360:	02050001 	andeq	r0, r5, #1
 364:	00000000 	andeq	r0, r0, r0
 368:	0100e103 	tsteq	r0, r3, lsl #2
 36c:	053d0205 	ldreq	r0, [sp, #-517]!	; 0xfffffdfb
 370:	09053c08 	stmdbeq	r5, {r3, sl, fp, ip, sp}
 374:	2f01052f 	svccs	0x0001052f
 378:	01000302 	tsteq	r0, r2, lsl #6
 37c:	00010501 	andeq	r0, r1, r1, lsl #10
 380:	00000205 	andeq	r0, r0, r5, lsl #4
 384:	e7030000 	str	r0, [r3, -r0]
 388:	02050100 	andeq	r0, r5, #0, 2
 38c:	3c08053d 	cfstr32cc	mvfx0, [r8], {61}	; 0x3d
 390:	052f0905 	streq	r0, [pc, #-2309]!	; fffffa93 <_estack+0xdfffea93>
 394:	03022f01 	movweq	r2, #12033	; 0x2f01
 398:	05010100 	streq	r0, [r1, #-256]	; 0xffffff00
 39c:	02050001 	andeq	r0, r5, #1
 3a0:	00000000 	andeq	r0, r0, r0
 3a4:	0100ed03 	tsteq	r0, r3, lsl #26
 3a8:	052f0905 	streq	r0, [pc, #-2309]!	; fffffaab <_estack+0xdfffeaab>
 3ac:	03022f01 	movweq	r2, #12033	; 0x2f01
 3b0:	05010100 	streq	r0, [r1, #-256]	; 0xffffff00
 3b4:	02050001 	andeq	r0, r5, #1
 3b8:	00000000 	andeq	r0, r0, r0
 3bc:	0100f203 	tsteq	r0, r3, lsl #4	; <UNPREDICTABLE>
 3c0:	053d0e05 	ldreq	r0, [sp, #-3589]!	; 0xfffff1fb
 3c4:	01054b09 	tsteq	r5, r9, lsl #22
 3c8:	00030221 	andeq	r0, r3, r1, lsr #4
 3cc:	01050101 	tsteq	r5, r1, lsl #2
 3d0:	00020500 	andeq	r0, r2, r0, lsl #10
 3d4:	03000000 	movweq	r0, #0
 3d8:	050100f8 	streq	r0, [r1, #-248]	; 0xffffff08
 3dc:	08054b02 	stmdaeq	r5, {r1, r8, r9, fp, lr}
 3e0:	2f09053c 	svccs	0x0009053c
 3e4:	022f0105 	eoreq	r0, pc, #1073741825	; 0x40000001
 3e8:	01010003 	tsteq	r1, r3
 3ec:	05000105 	streq	r0, [r0, #-261]	; 0xfffffefb
 3f0:	00000002 	andeq	r0, r0, r2
 3f4:	00fe0300 	rscseq	r0, lr, r0, lsl #6
 3f8:	21020501 	tstcs	r2, r1, lsl #10
 3fc:	053c0805 	ldreq	r0, [ip, #-2053]!	; 0xfffff7fb
 400:	01052f09 	tsteq	r5, r9, lsl #30
 404:	0002022f 	andeq	r0, r2, pc, lsr #4
 408:	01050101 	tsteq	r5, r1, lsl #2
 40c:	00020500 	andeq	r0, r2, r0, lsl #10
 410:	03000000 	movweq	r0, #0
 414:	05010184 	streq	r0, [r1, #-388]	; 0xfffffe7c
 418:	08055902 	stmdaeq	r5, {r1, r8, fp, ip, lr}
 41c:	2f09053c 	svccs	0x0009053c
 420:	022f0105 	eoreq	r0, pc, #1073741825	; 0x40000001
 424:	01010003 	tsteq	r1, r3
 428:	0000016f 	andeq	r0, r0, pc, ror #2
 42c:	010a0003 	tsteq	sl, r3
 430:	01020000 	mrseq	r0, (UNDEF: 2)
 434:	000d0efb 	strdeq	r0, [sp], -fp
 438:	01010101 	tsteq	r1, r1, lsl #2
 43c:	01000000 	mrseq	r0, (UNDEF: 0)
 440:	61010000 	mrsvs	r0, (UNDEF: 1)
 444:	2f686372 	svccs	0x00686372
 448:	74726f63 	ldrbtvc	r6, [r2], #-3939	; 0xfffff09d
 44c:	6d2d7865 	stcvs	8, cr7, [sp, #-404]!	; 0xfffffe6c
 450:	682f0031 	stmdavs	pc!, {r0, r4, r5}	; <UNPREDICTABLE>
 454:	2f656d6f 	svccs	0x00656d6f
 458:	72657073 	rsbvc	r7, r5, #115	; 0x73
 45c:	61726965 	cmnvs	r2, r5, ror #18
 460:	6f72702f 	svcvs	0x0072702f
 464:	7463656a 	strbtvc	r6, [r3], #-1386	; 0xfffffa96
 468:	706f2f73 	rsbvc	r2, pc, r3, ror pc	; <UNPREDICTABLE>
 46c:	63672f74 	cmnvs	r7, #116, 30	; 0x1d0
 470:	72612d63 	rsbvc	r2, r1, #6336	; 0x18c0
 474:	6f6e2d6d 	svcvs	0x006e2d6d
 478:	652d656e 	strvs	r6, [sp, #-1390]!	; 0xfffffa92
 47c:	2d696261 	sfmcs	f6, 2, [r9, #-388]!	; 0xfffffe7c
 480:	322d3031 	eorcc	r3, sp, #49	; 0x31
 484:	2d303230 	lfmcs	f3, 4, [r0, #-192]!	; 0xffffff40
 488:	6d2d3471 	cfstrsvs	mvf3, [sp, #-452]!	; 0xfffffe3c
 48c:	726f6a61 	rsbvc	r6, pc, #397312	; 0x61000
 490:	6d72612f 	ldfvse	f6, [r2, #-188]!	; 0xffffff44
 494:	6e6f6e2d 	cdpvs	14, 6, cr6, cr15, cr13, {1}
 498:	61652d65 	cmnvs	r5, r5, ror #26
 49c:	692f6962 	stmdbvs	pc!, {r1, r5, r6, r8, fp, sp, lr}	; <UNPREDICTABLE>
 4a0:	756c636e 	strbvc	r6, [ip, #-878]!	; 0xfffffc92
 4a4:	6d2f6564 	cfstr32vs	mvfx6, [pc, #-400]!	; 31c <uartlite_putchar>
 4a8:	69686361 	stmdbvs	r8!, {r0, r5, r6, r8, r9, sp, lr}^
 4ac:	2f00656e 	svccs	0x0000656e
 4b0:	656d6f68 	strbvs	r6, [sp, #-3944]!	; 0xfffff098
 4b4:	6570732f 	ldrbvs	r7, [r0, #-815]!	; 0xfffffcd1
 4b8:	72696572 	rsbvc	r6, r9, #478150656	; 0x1c800000
 4bc:	72702f61 	rsbsvc	r2, r0, #388	; 0x184
 4c0:	63656a6f 	cmnvs	r5, #454656	; 0x6f000
 4c4:	6f2f7374 	svcvs	0x002f7374
 4c8:	672f7470 			; <UNDEFINED> instruction: 0x672f7470
 4cc:	612d6363 			; <UNDEFINED> instruction: 0x612d6363
 4d0:	6e2d6d72 	mcrvs	13, 1, r6, cr13, cr2, {3}
 4d4:	2d656e6f 	stclcs	14, cr6, [r5, #-444]!	; 0xfffffe44
 4d8:	69626165 	stmdbvs	r2!, {r0, r2, r5, r6, r8, sp, lr}^
 4dc:	2d30312d 	ldfcss	f3, [r0, #-180]!	; 0xffffff4c
 4e0:	30323032 	eorscc	r3, r2, r2, lsr r0
 4e4:	2d34712d 	ldfcss	f7, [r4, #-180]!	; 0xffffff4c
 4e8:	6f6a616d 	svcvs	0x006a616d
 4ec:	72612f72 	rsbvc	r2, r1, #456	; 0x1c8
 4f0:	6f6e2d6d 	svcvs	0x006e2d6d
 4f4:	652d656e 	strvs	r6, [sp, #-1390]!	; 0xfffffa92
 4f8:	2f696261 	svccs	0x00696261
 4fc:	6c636e69 	stclvs	14, cr6, [r3], #-420	; 0xfffffe5c
 500:	2f656475 	svccs	0x00656475
 504:	00737973 	rsbseq	r7, r3, r3, ror r9
 508:	72617500 	rsbvc	r7, r1, #0, 10
 50c:	72645f74 	rsbvc	r5, r4, #116, 30	; 0x1d0
 510:	72657669 	rsbvc	r7, r5, #110100480	; 0x6900000
 514:	0100632e 	tsteq	r0, lr, lsr #6
 518:	645f0000 	ldrbvs	r0, [pc], #-0	; 520 <__sinit+0x4c>
 51c:	75616665 	strbvc	r6, [r1, #-1637]!	; 0xfffff99b
 520:	745f746c 	ldrbvc	r7, [pc], #-1132	; 528 <__sinit+0x54>
 524:	73657079 	cmnvc	r5, #121	; 0x79
 528:	0200682e 	andeq	r6, r0, #3014656	; 0x2e0000
 52c:	735f0000 	cmpvc	pc, #0
 530:	6e696474 	mcrvs	4, 3, r6, cr9, cr4, {3}
 534:	00682e74 	rsbeq	r2, r8, r4, ror lr
 538:	00000003 	andeq	r0, r0, r3
 53c:	05000105 	streq	r0, [r0, #-261]	; 0xfffffefb
 540:	0002f802 	andeq	pc, r2, r2, lsl #16
 544:	010a0300 	mrseq	r0, (UNDEF: 58)
 548:	052f0a05 	streq	r0, [pc, #-2565]!	; fffffb4b <_estack+0xdfffeb4b>
 54c:	01052009 	tsteq	r5, r9
 550:	00030221 	andeq	r0, r3, r1, lsr #4
 554:	01050101 	tsteq	r5, r1, lsl #2
 558:	06020500 	streq	r0, [r2], -r0, lsl #10
 55c:	03000003 	movweq	r0, #3
 560:	1505010f 	strne	r0, [r5, #-271]	; 0xfffffef1
 564:	2f0d053d 	svccs	0x000d053d
 568:	023e0105 	eorseq	r0, lr, #1073741825	; 0x40000001
 56c:	01010003 	tsteq	r1, r3
 570:	05000105 	streq	r0, [r0, #-261]	; 0xfffffefb
 574:	00031c02 	andeq	r1, r3, r2, lsl #24
 578:	01170300 	tsteq	r7, r0, lsl #6
 57c:	05670705 	strbeq	r0, [r7, #-1797]!	; 0xfffff8fb
 580:	04020008 	streq	r0, [r2], #-8
 584:	07052001 	streq	r2, [r5, -r1]
 588:	01040200 	mrseq	r0, R12_usr
 58c:	2f020574 	svccs	0x00020574
 590:	05830c05 	streq	r0, [r3, #3077]	; 0xc05
 594:	07022101 	streq	r2, [r2, -r1, lsl #2]
 598:	44010100 	strmi	r0, [r1], #-256	; 0xffffff00
 59c:	03000000 	movweq	r0, #0
 5a0:	00002e00 	andeq	r2, r0, r0, lsl #28
 5a4:	fb010200 	blx	40dae <_sidata+0x3f9be>
 5a8:	01000d0e 	tsteq	r0, lr, lsl #26
 5ac:	00010101 	andeq	r0, r1, r1, lsl #2
 5b0:	00010000 	andeq	r0, r1, r0
 5b4:	72610100 	rsbvc	r0, r1, #0, 2
 5b8:	632f6863 			; <UNDEFINED> instruction: 0x632f6863
 5bc:	6574726f 	ldrbvs	r7, [r4, #-623]!	; 0xfffffd91
 5c0:	316d2d78 	smccc	53976	; 0xd2d8
 5c4:	79730000 	ldmdbvc	r3!, {}^	; <UNPREDICTABLE>
 5c8:	6d657473 	cfstrdvs	mvd7, [r5, #-460]!	; 0xfffffe34
 5cc:	0100632e 	tsteq	r0, lr, lsr #6
 5d0:	05000000 	streq	r0, [r0, #-0]
 5d4:	02050001 	andeq	r0, r5, #1
 5d8:	0000035c 	andeq	r0, r0, ip, asr r3
 5dc:	02021913 	andeq	r1, r2, #311296	; 0x4c000
 5e0:	1c010100 	stfnes	f0, [r1], {-0}
 5e4:	03000001 	movweq	r0, #1
 5e8:	0000fd00 	andeq	pc, r0, r0, lsl #26
 5ec:	fb010200 	blx	40df6 <_sidata+0x3fa06>
 5f0:	01000d0e 	tsteq	r0, lr, lsl #26
 5f4:	00010101 	andeq	r0, r1, r1, lsl #2
 5f8:	00010000 	andeq	r0, r1, r0
 5fc:	65740100 	ldrbvs	r0, [r4, #-256]!	; 0xffffff00
 600:	682f0065 	stmdavs	pc!, {r0, r2, r5, r6}	; <UNPREDICTABLE>
 604:	2f656d6f 	svccs	0x00656d6f
 608:	72657073 	rsbvc	r7, r5, #115	; 0x73
 60c:	61726965 	cmnvs	r2, r5, ror #18
 610:	6f72702f 	svcvs	0x0072702f
 614:	7463656a 	strbtvc	r6, [r3], #-1386	; 0xfffffa96
 618:	706f2f73 	rsbvc	r2, pc, r3, ror pc	; <UNPREDICTABLE>
 61c:	63672f74 	cmnvs	r7, #116, 30	; 0x1d0
 620:	72612d63 	rsbvc	r2, r1, #6336	; 0x18c0
 624:	6f6e2d6d 	svcvs	0x006e2d6d
 628:	652d656e 	strvs	r6, [sp, #-1390]!	; 0xfffffa92
 62c:	2d696261 	sfmcs	f6, 2, [r9, #-388]!	; 0xfffffe7c
 630:	322d3031 	eorcc	r3, sp, #49	; 0x31
 634:	2d303230 	lfmcs	f3, 4, [r0, #-192]!	; 0xffffff40
 638:	6d2d3471 	cfstrsvs	mvf3, [sp, #-452]!	; 0xfffffe3c
 63c:	726f6a61 	rsbvc	r6, pc, #397312	; 0x61000
 640:	6d72612f 	ldfvse	f6, [r2, #-188]!	; 0xffffff44
 644:	6e6f6e2d 	cdpvs	14, 6, cr6, cr15, cr13, {1}
 648:	61652d65 	cmnvs	r5, r5, ror #26
 64c:	692f6962 	stmdbvs	pc!, {r1, r5, r6, r8, fp, sp, lr}	; <UNPREDICTABLE>
 650:	756c636e 	strbvc	r6, [ip, #-878]!	; 0xfffffc92
 654:	6d2f6564 	cfstr32vs	mvfx6, [pc, #-400]!	; 4cc <__sinit_lock_release+0x8>
 658:	69686361 	stmdbvs	r8!, {r0, r5, r6, r8, r9, sp, lr}^
 65c:	2f00656e 	svccs	0x0000656e
 660:	656d6f68 	strbvs	r6, [sp, #-3944]!	; 0xfffff098
 664:	6570732f 	ldrbvs	r7, [r0, #-815]!	; 0xfffffcd1
 668:	72696572 	rsbvc	r6, r9, #478150656	; 0x1c800000
 66c:	72702f61 	rsbsvc	r2, r0, #388	; 0x184
 670:	63656a6f 	cmnvs	r5, #454656	; 0x6f000
 674:	6f2f7374 	svcvs	0x002f7374
 678:	672f7470 			; <UNDEFINED> instruction: 0x672f7470
 67c:	612d6363 			; <UNDEFINED> instruction: 0x612d6363
 680:	6e2d6d72 	mcrvs	13, 1, r6, cr13, cr2, {3}
 684:	2d656e6f 	stclcs	14, cr6, [r5, #-444]!	; 0xfffffe44
 688:	69626165 	stmdbvs	r2!, {r0, r2, r5, r6, r8, sp, lr}^
 68c:	2d30312d 	ldfcss	f3, [r0, #-180]!	; 0xffffff4c
 690:	30323032 	eorscc	r3, r2, r2, lsr r0
 694:	2d34712d 	ldfcss	f7, [r4, #-180]!	; 0xffffff4c
 698:	6f6a616d 	svcvs	0x006a616d
 69c:	72612f72 	rsbvc	r2, r1, #456	; 0x1c8
 6a0:	6f6e2d6d 	svcvs	0x006e2d6d
 6a4:	652d656e 	strvs	r6, [sp, #-1390]!	; 0xfffffa92
 6a8:	2f696261 	svccs	0x00696261
 6ac:	6c636e69 	stclvs	14, cr6, [r3], #-420	; 0xfffffe5c
 6b0:	2f656475 	svccs	0x00656475
 6b4:	00737973 	rsbseq	r7, r3, r3, ror r9
 6b8:	65657400 	strbvs	r7, [r5, #-1024]!	; 0xfffffc00
 6bc:	746e655f 	strbtvc	r6, [lr], #-1375	; 0xfffffaa1
 6c0:	632e7972 			; <UNDEFINED> instruction: 0x632e7972
 6c4:	00000100 	andeq	r0, r0, r0, lsl #2
 6c8:	6665645f 			; <UNDEFINED> instruction: 0x6665645f
 6cc:	746c7561 	strbtvc	r7, [ip], #-1377	; 0xfffffa9f
 6d0:	7079745f 	rsbsvc	r7, r9, pc, asr r4
 6d4:	682e7365 	stmdavs	lr!, {r0, r2, r5, r6, r8, r9, ip, sp, lr}
 6d8:	00000200 	andeq	r0, r0, r0, lsl #4
 6dc:	6474735f 	ldrbtvs	r7, [r4], #-863	; 0xfffffca1
 6e0:	2e746e69 	cdpcs	14, 7, cr6, cr4, cr9, {3}
 6e4:	00030068 	andeq	r0, r3, r8, rrx
 6e8:	01050000 	mrseq	r0, (UNDEF: 5)
 6ec:	60020500 	andvs	r0, r2, r0, lsl #10
 6f0:	03000003 	movweq	r0, #3
 6f4:	0905010a 	stmdbeq	r5, {r1, r3, r8}
 6f8:	05011903 	streq	r1, [r1, #-2307]	; 0xfffff6fd
 6fc:	02022101 	andeq	r2, r2, #1073741824	; 0x40000000
 700:	51010100 	mrspl	r0, (UNDEF: 17)
 704:	03000001 	movweq	r0, #1
 708:	0000f900 	andeq	pc, r0, r0, lsl #18
 70c:	fb010200 	blx	40f16 <_sidata+0x3fb26>
 710:	01000d0e 	tsteq	r0, lr, lsl #26
 714:	00010101 	andeq	r0, r1, r1, lsl #2
 718:	00010000 	andeq	r0, r1, r0
 71c:	70610100 	rsbvc	r0, r1, r0, lsl #2
 720:	2f007370 	svccs	0x00007370
 724:	656d6f68 	strbvs	r6, [sp, #-3944]!	; 0xfffff098
 728:	6570732f 	ldrbvs	r7, [r0, #-815]!	; 0xfffffcd1
 72c:	72696572 	rsbvc	r6, r9, #478150656	; 0x1c800000
 730:	72702f61 	rsbsvc	r2, r0, #388	; 0x184
 734:	63656a6f 	cmnvs	r5, #454656	; 0x6f000
 738:	6f2f7374 	svcvs	0x002f7374
 73c:	672f7470 			; <UNDEFINED> instruction: 0x672f7470
 740:	612d6363 			; <UNDEFINED> instruction: 0x612d6363
 744:	6e2d6d72 	mcrvs	13, 1, r6, cr13, cr2, {3}
 748:	2d656e6f 	stclcs	14, cr6, [r5, #-444]!	; 0xfffffe44
 74c:	69626165 	stmdbvs	r2!, {r0, r2, r5, r6, r8, sp, lr}^
 750:	2d30312d 	ldfcss	f3, [r0, #-180]!	; 0xffffff4c
 754:	30323032 	eorscc	r3, r2, r2, lsr r0
 758:	2d34712d 	ldfcss	f7, [r4, #-180]!	; 0xffffff4c
 75c:	6f6a616d 	svcvs	0x006a616d
 760:	72612f72 	rsbvc	r2, r1, #456	; 0x1c8
 764:	6f6e2d6d 	svcvs	0x006e2d6d
 768:	652d656e 	strvs	r6, [sp, #-1390]!	; 0xfffffa92
 76c:	2f696261 	svccs	0x00696261
 770:	6c636e69 	stclvs	14, cr6, [r3], #-420	; 0xfffffe5c
 774:	2f656475 	svccs	0x00656475
 778:	6863616d 	stmdavs	r3!, {r0, r2, r3, r5, r6, r8, sp, lr}^
 77c:	00656e69 	rsbeq	r6, r5, r9, ror #28
 780:	6d6f682f 	stclvs	8, cr6, [pc, #-188]!	; 6cc <_malloc_r+0xb0>
 784:	70732f65 	rsbsvc	r2, r3, r5, ror #30
 788:	69657265 	stmdbvs	r5!, {r0, r2, r5, r6, r9, ip, sp, lr}^
 78c:	702f6172 	eorvc	r6, pc, r2, ror r1	; <UNPREDICTABLE>
 790:	656a6f72 	strbvs	r6, [sl, #-3954]!	; 0xfffff08e
 794:	2f737463 	svccs	0x00737463
 798:	2f74706f 	svccs	0x0074706f
 79c:	2d636367 	stclcs	3, cr6, [r3, #-412]!	; 0xfffffe64
 7a0:	2d6d7261 	sfmcs	f7, 2, [sp, #-388]!	; 0xfffffe7c
 7a4:	656e6f6e 	strbvs	r6, [lr, #-3950]!	; 0xfffff092
 7a8:	6261652d 	rsbvs	r6, r1, #188743680	; 0xb400000
 7ac:	30312d69 	eorscc	r2, r1, r9, ror #26
 7b0:	3230322d 	eorscc	r3, r0, #-805306366	; 0xd0000002
 7b4:	34712d30 	ldrbtcc	r2, [r1], #-3376	; 0xfffff2d0
 7b8:	6a616d2d 	bvs	185bc74 <_sidata+0x185a884>
 7bc:	612f726f 			; <UNDEFINED> instruction: 0x612f726f
 7c0:	6e2d6d72 	mcrvs	13, 1, r6, cr13, cr2, {3}
 7c4:	2d656e6f 	stclcs	14, cr6, [r5, #-444]!	; 0xfffffe44
 7c8:	69626165 	stmdbvs	r2!, {r0, r2, r5, r6, r8, sp, lr}^
 7cc:	636e692f 	cmnvs	lr, #770048	; 0xbc000
 7d0:	6564756c 	strbvs	r7, [r4, #-1388]!	; 0xfffffa94
 7d4:	7379732f 	cmnvc	r9, #-1140850688	; 0xbc000000
 7d8:	616d0000 	cmnvs	sp, r0
 7dc:	632e6e69 			; <UNDEFINED> instruction: 0x632e6e69
 7e0:	00000100 	andeq	r0, r0, r0, lsl #2
 7e4:	6665645f 			; <UNDEFINED> instruction: 0x6665645f
 7e8:	746c7561 	strbtvc	r7, [ip], #-1377	; 0xfffffa9f
 7ec:	7079745f 	rsbsvc	r7, r9, pc, asr r4
 7f0:	682e7365 	stmdavs	lr!, {r0, r2, r5, r6, r8, r9, ip, sp, lr}
 7f4:	00000200 	andeq	r0, r0, r0, lsl #4
 7f8:	6474735f 	ldrbtvs	r7, [r4], #-863	; 0xfffffca1
 7fc:	2e746e69 	cdpcs	14, 7, cr6, cr4, cr9, {3}
 800:	00030068 	andeq	r0, r3, r8, rrx
 804:	01050000 	mrseq	r0, (UNDEF: 5)
 808:	00020500 	andeq	r0, r2, r0, lsl #10
 80c:	03000000 	movweq	r0, #0
 810:	0a05010d 	beq	140c4c <_sidata+0x13f85c>
 814:	2009052f 	andcs	r0, r9, pc, lsr #10
 818:	02210105 	eoreq	r0, r1, #1073741825	; 0x40000001
 81c:	01010003 	tsteq	r1, r3
 820:	05000105 	streq	r0, [r0, #-261]	; 0xfffffefb
 824:	00000002 	andeq	r0, r0, r2
 828:	01120300 	tsteq	r2, r0, lsl #6
 82c:	053d1505 	ldreq	r1, [sp, #-1285]!	; 0xfffffafb
 830:	01052f0d 	tsteq	r5, sp, lsl #30
 834:	0003023e 	andeq	r0, r3, lr, lsr r2
 838:	01050101 	tsteq	r5, r1, lsl #2
 83c:	68020500 	stmdavs	r2, {r8, sl}
 840:	03000003 	movweq	r0, #3
 844:	0605011b 			; <UNDEFINED> instruction: 0x0605011b
 848:	2f0f052f 	svccs	0x000f052f
 84c:	02000805 	andeq	r0, r0, #327680	; 0x50000
 850:	02680104 	rsbeq	r0, r8, #4, 2
 854:	01010004 	tsteq	r1, r4

Disassembly of section .debug_info:

00000000 <.debug_info>:
   0:	0000001e 	andeq	r0, r0, lr, lsl r0
   4:	00000002 	andeq	r0, r0, r2
   8:	01040000 	mrseq	r0, (UNDEF: 4)
	...
  18:	00000016 	andeq	r0, r0, r6, lsl r0
  1c:	00000044 	andeq	r0, r0, r4, asr #32
  20:	00228001 	eoreq	r8, r2, r1
  24:	00020000 	andeq	r0, r2, r0
  28:	00000012 	andeq	r0, r0, r2, lsl r0
  2c:	00890104 	addeq	r0, r9, r4, lsl #2
  30:	023c0000 	eorseq	r0, ip, #0
  34:	02600000 	rsbeq	r0, r0, #0
  38:	00520000 	subseq	r0, r2, r0
  3c:	00160000 	andseq	r0, r6, r0
  40:	00440000 	subeq	r0, r4, r0
  44:	80010000 	andhi	r0, r1, r0
  48:	000006aa 	andeq	r0, r0, sl, lsr #13
  4c:	00260004 	eoreq	r0, r6, r4
  50:	01040000 	mrseq	r0, (UNDEF: 4)
  54:	000001ba 			; <UNDEFINED> instruction: 0x000001ba
  58:	00030a0c 	andeq	r0, r3, ip, lsl #20
  5c:	00001600 	andeq	r1, r0, r0, lsl #12
  60:	00002000 	andeq	r2, r0, r0
  64:	00000000 	andeq	r0, r0, r0
  68:	0000d400 	andeq	sp, r0, r0, lsl #8
  6c:	06010200 	streq	r0, [r1], -r0, lsl #4
  70:	00000156 	andeq	r0, r0, r6, asr r1
  74:	54080102 	strpl	r0, [r8], #-258	; 0xfffffefe
  78:	02000001 	andeq	r0, r0, #1
  7c:	00da0502 	sbcseq	r0, sl, r2, lsl #10
  80:	02020000 	andeq	r0, r2, #0
  84:	00026e07 	andeq	r6, r2, r7, lsl #28
  88:	05040200 	streq	r0, [r4, #-512]	; 0xfffffe00
  8c:	0000011f 	andeq	r0, r0, pc, lsl r1
  90:	0002dc03 	andeq	sp, r2, r3, lsl #24
  94:	194f0200 	stmdbne	pc, {r9}^	; <UNPREDICTABLE>
  98:	00000054 	andeq	r0, r0, r4, asr r0
  9c:	99070402 	stmdbls	r7, {r1, sl}
  a0:	02000001 	andeq	r0, r0, #1
  a4:	011a0508 	tsteq	sl, r8, lsl #10
  a8:	08020000 	stmdaeq	r2, {}	; <UNPREDICTABLE>
  ac:	00019407 	andeq	r9, r1, r7, lsl #8
  b0:	00e40300 	rsceq	r0, r4, r0, lsl #6
  b4:	c8020000 	stmdagt	r2, {}	; <UNPREDICTABLE>
  b8:	00005b1e 	andeq	r5, r0, lr, lsl fp
  bc:	05040400 	streq	r0, [r4, #-1024]	; 0xfffffc00
  c0:	00746e69 	rsbseq	r6, r4, r9, ror #28
  c4:	9e070402 	cdpls	4, 0, cr0, cr7, cr2, {0}
  c8:	02000001 	andeq	r0, r0, #1
  cc:	016d0408 	cmneq	sp, r8, lsl #8
  d0:	4d030000 	stcmi	0, cr0, [r3, #-0]
  d4:	03000003 	movweq	r0, #3
  d8:	00410e1e 	subeq	r0, r1, lr, lsl lr
  dc:	5a030000 	bpl	c00e4 <_sidata+0xbecf4>
  e0:	03000002 	movweq	r0, #2
  e4:	00410e22 	subeq	r0, r1, r2, lsr #28
  e8:	fe030000 	cdp2	0, 0, cr0, cr3, cr0, {0}
  ec:	03000002 	movweq	r0, #2
  f0:	00410e2e 	subeq	r0, r1, lr, lsr #28
  f4:	f5030000 			; <UNDEFINED> instruction: 0xf5030000
  f8:	03000002 	movweq	r0, #2
  fc:	00330f38 	eorseq	r0, r3, r8, lsr pc
 100:	2b030000 	blcs	c0108 <_sidata+0xbed18>
 104:	03000003 	movweq	r0, #3
 108:	003a183c 	eorseq	r1, sl, ip, lsr r8
 10c:	5e030000 	cdppl	0, 0, cr0, cr3, cr0, {0}
 110:	03000003 	movweq	r0, #3
 114:	003a183f 	eorseq	r1, sl, pc, lsr r8
 118:	a9030000 	stmdbge	r3, {}	; <UNPREDICTABLE>
 11c:	03000002 	movweq	r0, #2
 120:	003a184b 	eorseq	r1, sl, fp, asr #16
 124:	2f030000 	svccs	0x00030000
 128:	03000001 	movweq	r0, #1
 12c:	0048145a 	subeq	r1, r8, sl, asr r4
 130:	fd030000 	stc2	0, cr0, [r3, #-0]
 134:	03000002 	movweq	r0, #2
 138:	00a21066 	adceq	r1, r2, r6, rrx
 13c:	4a030000 	bmi	c0144 <_sidata+0xbed54>
 140:	03000001 	movweq	r0, #1
 144:	003a18d1 	ldrsbteq	r1, [sl], -r1
 148:	04050000 	streq	r0, [r5], #-0
 14c:	00000108 	andeq	r0, r0, r8, lsl #2
 150:	5d080102 	stfpls	f0, [r8, #-8]
 154:	03000001 	movweq	r0, #1
 158:	000000d3 	ldrdeq	r0, [r0], -r3
 15c:	69122a04 	ldmdbvs	r2, {r2, r9, fp, sp}
 160:	06000000 	streq	r0, [r0], -r0
 164:	00000322 	andeq	r0, r0, r2, lsr #6
 168:	082f0510 	stmdaeq	pc!, {r4, r8, sl}	; <UNPREDICTABLE>
 16c:	00000143 	andeq	r0, r0, r3, asr #2
 170:	00009207 	andeq	r9, r0, r7, lsl #4
 174:	09300500 	ldmdbeq	r0!, {r8, sl}
 178:	0000010f 	andeq	r0, r0, pc, lsl #2
 17c:	01860700 	orreq	r0, r6, r0, lsl #14
 180:	31050000 	mrscc	r0, (UNDEF: 5)
 184:	00004107 	andeq	r4, r0, r7, lsl #2
 188:	03000800 	movweq	r0, #2048	; 0x800
 18c:	0000034f 	andeq	r0, r0, pc, asr #6
 190:	8a146106 	bhi	5185b0 <_sidata+0x5171c0>
 194:	03000000 	movweq	r0, #0
 198:	0000025c 	andeq	r0, r0, ip, asr r2
 19c:	96156606 	ldrls	r6, [r5], -r6, lsl #12
 1a0:	03000000 	movweq	r0, #0
 1a4:	00000068 	andeq	r0, r0, r8, rrx
 1a8:	54136b06 	ldrpl	r6, [r3], #-2822	; 0xfffff4fa
 1ac:	03000000 	movweq	r0, #0
 1b0:	000002ab 	andeq	r0, r0, fp, lsr #5
 1b4:	d2128b06 	andsle	r8, r2, #6144	; 0x1800
 1b8:	03000000 	movweq	r0, #0
 1bc:	000002ff 	strdeq	r0, [r0], -pc	; <UNPREDICTABLE>
 1c0:	ea129d06 	b	4a75e0 <_sidata+0x4a61f0>
 1c4:	03000000 	movweq	r0, #0
 1c8:	000002f7 	strdeq	r0, [r0], -r7
 1cc:	ae12a106 	mnfges	f2, f6
 1d0:	03000000 	movweq	r0, #0
 1d4:	0000032d 	andeq	r0, r0, sp, lsr #6
 1d8:	ba12a506 	blt	4a95f8 <_sidata+0x4a8208>
 1dc:	03000000 	movweq	r0, #0
 1e0:	00000360 	andeq	r0, r0, r0, ror #6
 1e4:	c612a906 	ldrgt	sl, [r2], -r6, lsl #18
 1e8:	03000000 	movweq	r0, #0
 1ec:	00000131 	andeq	r0, r0, r1, lsr r1
 1f0:	de12bd06 	cdple	13, 1, cr11, cr2, cr6, {0}
 1f4:	03000000 	movweq	r0, #0
 1f8:	0000014c 	andeq	r0, r0, ip, asr #2
 1fc:	f613c206 			; <UNDEFINED> instruction: 0xf613c206
 200:	06000000 	streq	r0, [r0], -r0
 204:	0000009a 	muleq	r0, sl, r0
 208:	081b0758 	ldmdaeq	fp, {r3, r4, r6, r8, r9, sl}
 20c:	0000027f 	andeq	r0, r0, pc, ror r2
 210:	0000ba07 	andeq	fp, r0, r7, lsl #20
 214:	0a1d0700 	beq	741e1c <_sidata+0x740a2c>
 218:	0000017f 	andeq	r0, r0, pc, ror r1
 21c:	01790700 	cmneq	r9, r0, lsl #14
 220:	1e070000 	cdpne	0, 0, cr0, cr7, cr0, {0}
 224:	0001670a 	andeq	r6, r1, sl, lsl #14
 228:	33070200 	movwcc	r0, #29184	; 0x7200
 22c:	07000003 	streq	r0, [r0, -r3]
 230:	01a30a1f 			; <UNDEFINED> instruction: 0x01a30a1f
 234:	07040000 	streq	r0, [r4, -r0]
 238:	000001ab 	andeq	r0, r0, fp, lsr #3
 23c:	af0b2007 	svcge	0x000b2007
 240:	08000001 	stmdaeq	r0, {r0}
 244:	0002bb07 	andeq	fp, r2, r7, lsl #22
 248:	0a210700 	beq	841e50 <_sidata+0x840a60>
 24c:	0000018b 	andeq	r0, r0, fp, lsl #3
 250:	0128070a 			; <UNDEFINED> instruction: 0x0128070a
 254:	22070000 	andcs	r0, r7, #0
 258:	0001970a 	andeq	r9, r1, sl, lsl #14
 25c:	60070c00 	andvs	r0, r7, r0, lsl #24
 260:	07000000 	streq	r0, [r0, -r0]
 264:	017f0a23 	cmneq	pc, r3, lsr #20
 268:	070e0000 	streq	r0, [lr, -r0]
 26c:	000002c2 	andeq	r0, r0, r2, asr #5
 270:	730a2407 	movwvc	r2, #41991	; 0xa407
 274:	10000001 	andne	r0, r0, r1
 278:	00026607 	andeq	r6, r2, r7, lsl #12
 27c:	132a0700 			; <UNDEFINED> instruction: 0x132a0700
 280:	0000011b 	andeq	r0, r0, fp, lsl r1
 284:	02a10718 	adceq	r0, r1, #24, 14	; 0x600000
 288:	2b070000 	blcs	1c0290 <_sidata+0x1beea0>
 28c:	00011b13 	andeq	r1, r1, r3, lsl fp
 290:	9f072800 	svcls	0x00072800
 294:	07000000 	streq	r0, [r0, -r0]
 298:	011b132c 	tsteq	fp, ip, lsr #6
 29c:	07380000 	ldreq	r0, [r8, -r0]!
 2a0:	000000f4 	strdeq	r0, [r0], -r4
 2a4:	4f112d07 	svcmi	0x00112d07
 2a8:	48000001 	stmdami	r0, {r0}
 2ac:	00028f07 	andeq	r8, r2, r7, lsl #30
 2b0:	0c2e0700 	stceq	7, cr0, [lr], #-0
 2b4:	00000143 	andeq	r0, r0, r3, asr #2
 2b8:	02ca074c 	sbceq	r0, sl, #76, 14	; 0x1300000
 2bc:	30070000 	andcc	r0, r7, r0
 2c0:	00027f09 	andeq	r7, r2, r9, lsl #30
 2c4:	08005000 	stmdaeq	r0, {ip, lr}
 2c8:	00000041 	andeq	r0, r0, r1, asr #32
 2cc:	0000028f 	andeq	r0, r0, pc, lsl #5
 2d0:	00007c09 	andeq	r7, r0, r9, lsl #24
 2d4:	0a000100 	beq	6dc <__sfputc_r+0x4>
 2d8:	00736d74 	rsbseq	r6, r3, r4, ror sp
 2dc:	08110810 	ldmdaeq	r1, {r4, fp}
 2e0:	000002d1 	ldrdeq	r0, [r0], -r1
 2e4:	00033b07 	andeq	r3, r3, r7, lsl #22
 2e8:	0a120800 	beq	4822f0 <_sidata+0x480f00>
 2ec:	0000015b 	andeq	r0, r0, fp, asr r1
 2f0:	02b10700 	adcseq	r0, r1, #0, 14
 2f4:	13080000 	movwne	r0, #32768	; 0x8000
 2f8:	00015b0a 	andeq	r5, r1, sl, lsl #22
 2fc:	7f070400 	svcvc	0x00070400
 300:	08000000 	stmdaeq	r0, {}	; <UNPREDICTABLE>
 304:	015b0a14 	cmpeq	fp, r4, lsl sl
 308:	07080000 	streq	r0, [r8, -r0]
 30c:	00000138 	andeq	r0, r0, r8, lsr r1
 310:	5b0a1508 	blpl	285738 <_sidata+0x284348>
 314:	0c000001 	stceq	0, cr0, [r0], {1}
 318:	01020800 	tsteq	r2, r0, lsl #16
 31c:	02e10000 	rsceq	r0, r1, #0
 320:	7c090000 	stcvc	0, cr0, [r9], {-0}
 324:	00000000 	andeq	r0, r0, r0
 328:	00a70b00 	adceq	r0, r7, r0, lsl #22
 32c:	14010000 	strne	r0, [r1], #-0
 330:	0002d107 	andeq	sp, r2, r7, lsl #2
 334:	00030500 	andeq	r0, r3, r0, lsl #10
 338:	0b000000 	bleq	340 <uartlite_putchar+0x24>
 33c:	00000070 	andeq	r0, r0, r0, ror r0
 340:	05081501 	streq	r1, [r8, #-1281]	; 0xfffffaff
 344:	05000003 	streq	r0, [r0, #-3]
 348:	00000003 	andeq	r0, r0, r3
 34c:	02040500 	andeq	r0, r4, #0, 10
 350:	0c000001 	stceq	0, cr0, [r0], {1}
 354:	0000008a 	andeq	r0, r0, sl, lsl #1
 358:	75058401 	strvc	r8, [r5, #-1025]	; 0xfffffbff
 35c:	00000000 	andeq	r0, r0, r0
 360:	1e000000 	cdpne	0, 0, cr0, cr0, cr0, {0}
 364:	01000000 	mrseq	r0, (UNDEF: 0)
 368:	0003539c 	muleq	r3, ip, r3
 36c:	01620d00 	cmneq	r2, r0, lsl #26
 370:	84010000 	strhi	r0, [r1], #-0
 374:	00010213 	andeq	r0, r1, r3, lsl r2
 378:	74910200 	ldrvc	r0, [r1], #512	; 0x200
 37c:	0002550d 	andeq	r5, r2, sp, lsl #10
 380:	20840100 	addcs	r0, r4, r0, lsl #2
 384:	00000305 	andeq	r0, r0, r5, lsl #6
 388:	0e709102 	expeqs	f1, f2
 38c:	00766e65 	rsbseq	r6, r6, r5, ror #28
 390:	052d8401 	streq	r8, [sp, #-1025]!	; 0xfffffbff
 394:	02000003 	andeq	r0, r0, #3
 398:	0f006c91 	svceq	0x00006c91
 39c:	000002e7 	andeq	r0, r0, r7, ror #5
 3a0:	75057e01 	strvc	r7, [r5, #-3585]	; 0xfffff1ff
 3a4:	00000000 	andeq	r0, r0, r0
 3a8:	14000000 	strne	r0, [r0], #-0
 3ac:	01000000 	mrseq	r0, (UNDEF: 0)
 3b0:	03580c9c 	cmpeq	r8, #156, 24	; 0x9c00
 3b4:	78010000 	stmdavc	r1, {}	; <UNPREDICTABLE>
 3b8:	00007505 	andeq	r7, r0, r5, lsl #10
 3bc:	00000000 	andeq	r0, r0, r0
 3c0:	00001c00 	andeq	r1, r0, r0, lsl #24
 3c4:	a29c0100 	addsge	r0, ip, #0, 2
 3c8:	0e000003 	cdpeq	0, 0, cr0, cr0, cr3, {0}
 3cc:	00646c6f 	rsbeq	r6, r4, pc, ror #24
 3d0:	02117801 	andseq	r7, r1, #65536	; 0x10000
 3d4:	02000001 	andeq	r0, r0, #1
 3d8:	6e0e7491 	mcrvs	4, 0, r7, cr14, cr1, {4}
 3dc:	01007765 	tsteq	r0, r5, ror #14
 3e0:	01021c78 	tsteq	r2, r8, ror ip
 3e4:	91020000 	mrsls	r0, (UNDEF: 2)
 3e8:	99100070 	ldmdbls	r0, {r4, r5, r6}
 3ec:	01000000 	mrseq	r0, (UNDEF: 0)
 3f0:	00750572 	rsbseq	r0, r5, r2, ror r5
 3f4:	00000000 	andeq	r0, r0, r0
 3f8:	00160000 	andseq	r0, r6, r0
 3fc:	9c010000 	stcls	0, cr0, [r1], {-0}
 400:	000003da 	ldrdeq	r0, [r0], -sl
 404:	0000c80d 	andeq	ip, r0, sp, lsl #16
 408:	11720100 	cmnne	r2, r0, lsl #2
 40c:	00000102 	andeq	r0, r0, r2, lsl #2
 410:	0e7c9102 	expeqe	f1, f2
 414:	01007473 	tsteq	r0, r3, ror r4
 418:	03da2472 	bicseq	r2, sl, #1912602624	; 0x72000000
 41c:	91020000 	mrsls	r0, (UNDEF: 2)
 420:	04050078 	streq	r0, [r5], #-120	; 0xffffff88
 424:	000001bb 			; <UNDEFINED> instruction: 0x000001bb
 428:	00014310 	andeq	r4, r1, r0, lsl r3
 42c:	056d0100 	strbeq	r0, [sp, #-256]!	; 0xffffff00
 430:	00000075 	andeq	r0, r0, r5, ror r0
 434:	00000000 	andeq	r0, r0, r0
 438:	0000000e 	andeq	r0, r0, lr
 43c:	040a9c01 	streq	r9, [sl], #-3073	; 0xfffff3ff
 440:	620e0000 	andvs	r0, lr, #0
 444:	01006675 	tsteq	r0, r5, ror r6
 448:	040a186d 	streq	r1, [sl], #-2157	; 0xfffff793
 44c:	91020000 	mrsls	r0, (UNDEF: 2)
 450:	0405007c 	streq	r0, [r5], #-124	; 0xffffff84
 454:	0000028f 	andeq	r0, r0, pc, lsl #5
 458:	0003450c 	andeq	r4, r3, ip, lsl #10
 45c:	05670100 	strbeq	r0, [r7, #-256]!	; 0xffffff00
 460:	00000075 	andeq	r0, r0, r5, ror r0
 464:	00000000 	andeq	r0, r0, r0
 468:	0000001a 	andeq	r0, r0, sl, lsl r0
 46c:	043a9c01 	ldrteq	r9, [sl], #-3073	; 0xfffff3ff
 470:	620d0000 	andvs	r0, sp, #0
 474:	01000001 	tsteq	r0, r1
 478:	01021367 	tsteq	r2, r7, ror #6
 47c:	91020000 	mrsls	r0, (UNDEF: 2)
 480:	670c0074 	smlsdxvs	ip, r4, r0, r0
 484:	01000001 	tsteq	r0, r1
 488:	00750561 	rsbseq	r0, r5, r1, ror #10
 48c:	00000000 	andeq	r0, r0, r0
 490:	001a0000 	andseq	r0, sl, r0
 494:	9c010000 	stcls	0, cr0, [r1], {-0}
 498:	00000464 	andeq	r0, r0, r4, ror #8
 49c:	0002810d 	andeq	r8, r2, sp, lsl #2
 4a0:	10610100 	rsbne	r0, r1, r0, lsl #2
 4a4:	00000464 	andeq	r0, r0, r4, ror #8
 4a8:	00749102 	rsbseq	r9, r4, r2, lsl #2
 4ac:	00750405 	rsbseq	r0, r5, r5, lsl #8
 4b0:	b4100000 	ldrlt	r0, [r0], #-0
 4b4:	01000001 	tsteq	r0, r1
 4b8:	0075055b 	rsbseq	r0, r5, fp, asr r5
 4bc:	00000000 	andeq	r0, r0, r0
 4c0:	00120000 	andseq	r0, r2, r0
 4c4:	9c010000 	stcls	0, cr0, [r1], {-0}
 4c8:	000004a4 	andeq	r0, r0, r4, lsr #9
 4cc:	0003050d 	andeq	r0, r3, sp, lsl #10
 4d0:	115b0100 	cmpne	fp, r0, lsl #2
 4d4:	00000102 	andeq	r0, r0, r2, lsl #2
 4d8:	0d6c9102 	stfeqp	f1, [ip, #-8]!
 4dc:	0000018e 	andeq	r0, r0, lr, lsl #3
 4e0:	751b5b01 	ldrvc	r5, [fp, #-2817]	; 0xfffff4ff
 4e4:	02000000 	andeq	r0, r0, #0
 4e8:	00117491 	mulseq	r1, r1, r4
 4ec:	00007810 	andeq	r7, r0, r0, lsl r8
 4f0:	05560100 	ldrbeq	r0, [r6, #-256]	; 0xffffff00
 4f4:	00000075 	andeq	r0, r0, r5, ror r0
 4f8:	000002e8 	andeq	r0, r0, r8, ror #5
 4fc:	00000010 	andeq	r0, r0, r0, lsl r0
 500:	04ec9c01 	strbteq	r9, [ip], #3073	; 0xc01
 504:	c80d0000 	stmdagt	sp, {}	; <UNPREDICTABLE>
 508:	01000000 	mrseq	r0, (UNDEF: 0)
 50c:	00751056 	rsbseq	r1, r5, r6, asr r0
 510:	91020000 	mrsls	r0, (UNDEF: 2)
 514:	74700e7c 	ldrbtvc	r0, [r0], #-3708	; 0xfffff184
 518:	56010072 			; <UNDEFINED> instruction: 0x56010072
 51c:	0000751a 	andeq	r7, r0, sl, lsl r5
 520:	78910200 	ldmvc	r1, {r9}
 524:	7269640e 	rsbvc	r6, r9, #234881024	; 0xe000000
 528:	23560100 	cmpcs	r6, #0, 2
 52c:	00000075 	andeq	r0, r0, r5, ror r0
 530:	00749102 	rsbseq	r9, r4, r2, lsl #2
 534:	00029910 	andeq	r9, r2, r0, lsl r9
 538:	05510100 	ldrbeq	r0, [r1, #-256]	; 0xffffff00
 53c:	00000075 	andeq	r0, r0, r5, ror r0
 540:	000002dc 	ldrdeq	r0, [r0], -ip
 544:	0000000c 	andeq	r0, r0, ip
 548:	05169c01 	ldreq	r9, [r6, #-3073]	; 0xfffff3ff
 54c:	c80d0000 	stmdagt	sp, {}	; <UNPREDICTABLE>
 550:	01000000 	mrseq	r0, (UNDEF: 0)
 554:	00751151 	rsbseq	r1, r5, r1, asr r1
 558:	91020000 	mrsls	r0, (UNDEF: 2)
 55c:	c110007c 	tstgt	r0, ip, ror r0
 560:	01000000 	mrseq	r0, (UNDEF: 0)
 564:	0075054b 	rsbseq	r0, r5, fp, asr #10
 568:	02c60000 	sbceq	r0, r6, #0
 56c:	00160000 	andseq	r0, r6, r0
 570:	9c010000 	stcls	0, cr0, [r1], {-0}
 574:	0000054e 	andeq	r0, r0, lr, asr #10
 578:	0000c80d 	andeq	ip, r0, sp, lsl #16
 57c:	104b0100 	subne	r0, fp, r0, lsl #2
 580:	00000075 	andeq	r0, r0, r5, ror r0
 584:	0e7c9102 	expeqe	f1, f2
 588:	01007473 	tsteq	r0, r3, ror r4
 58c:	03da234b 	bicseq	r2, sl, #738197505	; 0x2c000001
 590:	91020000 	mrsls	r0, (UNDEF: 2)
 594:	88100078 	ldmdahi	r0, {r3, r4, r5, r6}
 598:	01000002 	tsteq	r0, r2
 59c:	00750545 	rsbseq	r0, r5, r5, asr #10
 5a0:	02b80000 	adcseq	r0, r8, #0
 5a4:	000e0000 	andeq	r0, lr, r0
 5a8:	9c010000 	stcls	0, cr0, [r1], {-0}
 5ac:	00000578 	andeq	r0, r0, r8, ror r5
 5b0:	0000c80d 	andeq	ip, r0, sp, lsl #16
 5b4:	10450100 	subne	r0, r5, r0, lsl #2
 5b8:	00000075 	andeq	r0, r0, r5, ror r0
 5bc:	007c9102 	rsbseq	r9, ip, r2, lsl #2
 5c0:	0000b30c 	andeq	fp, r0, ip, lsl #6
 5c4:	1b3a0100 	blne	e809cc <_sidata+0xe7f5dc>
 5c8:	00000075 	andeq	r0, r0, r5, ror r0
 5cc:	00000284 	andeq	r0, r0, r4, lsl #5
 5d0:	00000034 	andeq	r0, r0, r4, lsr r0
 5d4:	05cf9c01 	strbeq	r9, [pc, #3073]	; 11dd <memchr+0x1>
 5d8:	c80d0000 	stmdagt	sp, {}	; <UNPREDICTABLE>
 5dc:	01000000 	mrseq	r0, (UNDEF: 0)
 5e0:	0075263a 	rsbseq	r2, r5, sl, lsr r6
 5e4:	91020000 	mrsls	r0, (UNDEF: 2)
 5e8:	74700e6c 	ldrbtvc	r0, [r0], #-3692	; 0xfffff194
 5ec:	3a010072 	bcc	407bc <_sidata+0x3f3cc>
 5f0:	00010232 	andeq	r0, r1, r2, lsr r2
 5f4:	68910200 	ldmvs	r1, {r9}
 5f8:	6e656c0e 	cdpvs	12, 6, cr6, cr5, cr14, {0}
 5fc:	3b3a0100 	blcc	e80a04 <_sidata+0xe7f614>
 600:	00000075 	andeq	r0, r0, r5, ror r0
 604:	12649102 	rsbne	r9, r4, #-2147483648	; 0x80000000
 608:	000002d4 	ldrdeq	r0, [r0], -r4
 60c:	75063c01 	strvc	r3, [r6, #-3073]	; 0xfffff3ff
 610:	02000000 	andeq	r0, r0, #0
 614:	10007491 	mulne	r0, r1, r4
 618:	00000180 	andeq	r0, r0, r0, lsl #3
 61c:	751b2e01 	ldrvc	r2, [fp, #-3585]	; 0xfffff1ff
 620:	60000000 	andvs	r0, r0, r0
 624:	24000002 	strcs	r0, [r0], #-2
 628:	01000000 	mrseq	r0, (UNDEF: 0)
 62c:	0006269c 	muleq	r6, ip, r6
 630:	00c80d00 	sbceq	r0, r8, r0, lsl #26
 634:	2e010000 	cdpcs	0, 0, cr0, cr1, cr0, {0}
 638:	00007525 	andeq	r7, r0, r5, lsr #10
 63c:	74910200 	ldrvc	r0, [r1], #512	; 0x200
 640:	7274700e 	rsbsvc	r7, r4, #14
 644:	312e0100 			; <UNDEFINED> instruction: 0x312e0100
 648:	00000102 	andeq	r0, r0, r2, lsl #2
 64c:	0e709102 	expeqs	f1, f2
 650:	006e656c 	rsbeq	r6, lr, ip, ror #10
 654:	753a2e01 	ldrvc	r2, [sl, #-3585]!	; 0xfffff1ff
 658:	02000000 	andeq	r0, r0, #0
 65c:	d4126c91 	ldrle	r6, [r2], #-3217	; 0xfffff36f
 660:	01000002 	tsteq	r0, r2
 664:	00750630 	rsbseq	r0, r5, r0, lsr r6
 668:	91020000 	mrsls	r0, (UNDEF: 2)
 66c:	ad13007c 	ldcge	0, cr0, [r3, #-496]	; 0xfffffe10
 670:	01000000 	mrseq	r0, (UNDEF: 0)
 674:	00000628 	andeq	r0, r0, r8, lsr #12
 678:	00160000 	andseq	r0, r6, r0
 67c:	9c010000 	stcls	0, cr0, [r1], {-0}
 680:	0000064c 	andeq	r0, r0, ip, asr #12
 684:	0002810d 	andeq	r8, r2, sp, lsl #2
 688:	11280100 			; <UNDEFINED> instruction: 0x11280100
 68c:	00000075 	andeq	r0, r0, r5, ror r0
 690:	00749102 	rsbseq	r9, r4, r2, lsl #2
 694:	0000cd0c 	andeq	ip, r0, ip, lsl #26
 698:	05220100 	streq	r0, [r2, #-256]!	; 0xffffff00
 69c:	00000075 	andeq	r0, r0, r5, ror r0
 6a0:	00000000 	andeq	r0, r0, r0
 6a4:	0000001c 	andeq	r0, r0, ip, lsl r0
 6a8:	06859c01 	streq	r9, [r5], r1, lsl #24
 6ac:	700e0000 	andvc	r0, lr, r0
 6b0:	01006469 	tsteq	r0, r9, ror #8
 6b4:	00750f22 	rsbseq	r0, r5, r2, lsr #30
 6b8:	91020000 	mrsls	r0, (UNDEF: 2)
 6bc:	69730e74 	ldmdbvs	r3!, {r2, r4, r5, r6, r9, sl, fp}^
 6c0:	22010067 	andcs	r0, r1, #103	; 0x67
 6c4:	00007518 	andeq	r7, r0, r8, lsl r5
 6c8:	70910200 	addsvc	r0, r1, r0, lsl #4
 6cc:	02ed1400 	rsceq	r1, sp, #0, 8
 6d0:	1d010000 	stcne	0, cr0, [r1, #-0]
 6d4:	00007505 	andeq	r7, r0, r5, lsl #10
 6d8:	00000000 	andeq	r0, r0, r0
 6dc:	00000600 	andeq	r0, r0, r0, lsl #12
 6e0:	159c0100 	ldrne	r0, [ip, #256]	; 0x100
 6e4:	000000ff 	strdeq	r0, [r0], -pc	; <UNPREDICTABLE>
 6e8:	00061901 	andeq	r1, r6, r1, lsl #18
 6ec:	04000000 	streq	r0, [r0], #-0
 6f0:	01000000 	mrseq	r0, (UNDEF: 0)
 6f4:	013d009c 			; <UNDEFINED> instruction: 0x013d009c
 6f8:	00040000 	andeq	r0, r4, r0
 6fc:	000001a3 	andeq	r0, r0, r3, lsr #3
 700:	01ba0104 			; <UNDEFINED> instruction: 0x01ba0104
 704:	a20c0000 	andge	r0, ip, #0
 708:	16000003 	strne	r0, [r0], -r3
 70c:	b8000000 	stmdalt	r0, {}	; <UNPREDICTABLE>
 710:	00000000 	andeq	r0, r0, r0
 714:	28000000 	stmdacs	r0, {}	; <UNPREDICTABLE>
 718:	02000004 	andeq	r0, r0, #4
 71c:	01560601 	cmpeq	r6, r1, lsl #12
 720:	01020000 	mrseq	r0, (UNDEF: 2)
 724:	00015408 	andeq	r5, r1, r8, lsl #8
 728:	05020200 	streq	r0, [r2, #-512]	; 0xfffffe00
 72c:	000000da 	ldrdeq	r0, [r0], -sl
 730:	6e070202 	cdpvs	2, 0, cr0, cr7, cr2, {0}
 734:	02000002 	andeq	r0, r0, #2
 738:	011f0504 	tsteq	pc, r4, lsl #10
 73c:	dc030000 	stcle	0, cr0, [r3], {-0}
 740:	02000002 	andeq	r0, r0, #2
 744:	0054194f 	subseq	r1, r4, pc, asr #18
 748:	04020000 	streq	r0, [r2], #-0
 74c:	00019907 	andeq	r9, r1, r7, lsl #18
 750:	05080200 	streq	r0, [r8, #-512]	; 0xfffffe00
 754:	0000011a 	andeq	r0, r0, sl, lsl r1
 758:	94070802 	strls	r0, [r7], #-2050	; 0xfffff7fe
 75c:	04000001 	streq	r0, [r0], #-1
 760:	6e690504 	cdpvs	5, 6, cr0, cr9, cr4, {0}
 764:	66030074 			; <UNDEFINED> instruction: 0x66030074
 768:	02000003 	andeq	r0, r0, #3
 76c:	007c1ae8 	rsbseq	r1, ip, r8, ror #21
 770:	04020000 	streq	r0, [r2], #-0
 774:	00019e07 	andeq	r9, r1, r7, lsl #28
 778:	02de0300 	sbcseq	r0, lr, #0, 6
 77c:	30030000 	andcc	r0, r3, r0
 780:	00004814 	andeq	r4, r0, r4, lsl r8
 784:	00830500 	addeq	r0, r3, r0, lsl #10
 788:	68030000 	stmdavs	r3, {}	; <UNPREDICTABLE>
 78c:	03000003 	movweq	r0, #3
 790:	00701552 	rsbseq	r1, r0, r2, asr r5
 794:	91060000 	mrsls	r0, (UNDEF: 6)
 798:	01000003 	tsteq	r0, r3
 79c:	00690517 	rsbeq	r0, r9, r7, lsl r5
 7a0:	031c0000 	tsteq	ip, #0
 7a4:	00400000 	subeq	r0, r0, r0
 7a8:	9c010000 	stcls	0, cr0, [r1], {-0}
 7ac:	000000c9 	andeq	r0, r0, r9, asr #1
 7b0:	00686307 	rsbeq	r6, r8, r7, lsl #6
 7b4:	c91b1701 	ldmdbgt	fp, {r0, r8, r9, sl, ip}
 7b8:	02000000 	andeq	r0, r0, #0
 7bc:	02007791 	andeq	r7, r0, #38010880	; 0x2440000
 7c0:	015d0801 	cmpeq	sp, r1, lsl #16
 7c4:	7c080000 	stcvc	0, cr0, [r8], {-0}
 7c8:	01000003 	tsteq	r0, r3
 7cc:	03060d0f 	movweq	r0, #27919	; 0x6d0f
 7d0:	00160000 	andseq	r0, r6, r0
 7d4:	9c010000 	stcls	0, cr0, [r1], {-0}
 7d8:	00000114 	andeq	r0, r0, r4, lsl r1
 7dc:	00037709 	andeq	r7, r3, r9, lsl #14
 7e0:	1f0f0100 	svcne	0x000f0100
 7e4:	00000094 	muleq	r0, r4, r0
 7e8:	09749102 	ldmdbeq	r4!, {r1, r8, ip, pc}^
 7ec:	0000038b 	andeq	r0, r0, fp, lsl #7
 7f0:	832e0f01 			; <UNDEFINED> instruction: 0x832e0f01
 7f4:	02000000 	andeq	r0, r0, #0
 7f8:	720a7091 	andvc	r7, sl, #145	; 0x91
 7fc:	01000003 	tsteq	r0, r3
 800:	01141511 	tsteq	r4, r1, lsl r5
 804:	91020000 	mrsls	r0, (UNDEF: 2)
 808:	040b007c 	streq	r0, [fp], #-124	; 0xffffff84
 80c:	0000008f 	andeq	r0, r0, pc, lsl #1
 810:	0003840c 	andeq	r8, r3, ip, lsl #8
 814:	110a0100 	mrsne	r0, (UNDEF: 26)
 818:	00000083 	andeq	r0, r0, r3, lsl #1
 81c:	000002f8 	strdeq	r0, [r0], -r8
 820:	0000000e 	andeq	r0, r0, lr
 824:	77099c01 	strvc	r9, [r9, -r1, lsl #24]
 828:	01000003 	tsteq	r0, r3
 82c:	0094220a 	addseq	r2, r4, sl, lsl #4
 830:	91020000 	mrsls	r0, (UNDEF: 2)
 834:	3400007c 	strcc	r0, [r0], #-124	; 0xffffff84
 838:	04000000 	streq	r0, [r0], #-0
 83c:	00027100 	andeq	r7, r2, r0, lsl #2
 840:	ba010400 	blt	41848 <_sidata+0x40458>
 844:	0c000001 	stceq	0, cr0, [r0], {1}
 848:	000003bf 			; <UNDEFINED> instruction: 0x000003bf
 84c:	00000016 	andeq	r0, r0, r6, lsl r0
 850:	000000d8 	ldrdeq	r0, [r0], -r8
 854:	00000000 	andeq	r0, r0, r0
 858:	0000059b 	muleq	r0, fp, r5
 85c:	0003d702 	andeq	sp, r3, r2, lsl #14
 860:	06010100 	streq	r0, [r1], -r0, lsl #2
 864:	0000035c 	andeq	r0, r0, ip, asr r3
 868:	00000004 	andeq	r0, r0, r4
 86c:	a2009c01 	andge	r9, r0, #256	; 0x100
 870:	04000000 	streq	r0, [r0], #-0
 874:	00029f00 	andeq	r9, r2, r0, lsl #30
 878:	ba010400 	blt	41880 <_sidata+0x40490>
 87c:	0c000001 	stceq	0, cr0, [r0], {1}
 880:	000003e2 	andeq	r0, r0, r2, ror #7
 884:	00000016 	andeq	r0, r0, r6, lsl r0
 888:	000000e8 	andeq	r0, r0, r8, ror #1
 88c:	00000000 	andeq	r0, r0, r0
 890:	000005e3 	andeq	r0, r0, r3, ror #11
 894:	56060102 	strpl	r0, [r6], -r2, lsl #2
 898:	02000001 	andeq	r0, r0, #1
 89c:	01540801 	cmpeq	r4, r1, lsl #16
 8a0:	02020000 	andeq	r0, r2, #0
 8a4:	0000da05 	andeq	sp, r0, r5, lsl #20
 8a8:	07020200 	streq	r0, [r2, -r0, lsl #4]
 8ac:	0000026e 	andeq	r0, r0, lr, ror #4
 8b0:	1f050402 	svcne	0x00050402
 8b4:	03000001 	movweq	r0, #1
 8b8:	000002dc 	ldrdeq	r0, [r0], -ip
 8bc:	54194f02 	ldrpl	r4, [r9], #-3842	; 0xfffff0fe
 8c0:	02000000 	andeq	r0, r0, #0
 8c4:	01990704 	orrseq	r0, r9, r4, lsl #14
 8c8:	08020000 	stmdaeq	r2, {}	; <UNPREDICTABLE>
 8cc:	00011a05 	andeq	r1, r1, r5, lsl #20
 8d0:	07080200 	streq	r0, [r8, -r0, lsl #4]
 8d4:	00000194 	muleq	r0, r4, r1
 8d8:	69050404 	stmdbvs	r5, {r2, sl}
 8dc:	0200746e 	andeq	r7, r0, #1845493760	; 0x6e000000
 8e0:	019e0704 	orrseq	r0, lr, r4, lsl #14
 8e4:	de030000 	cdple	0, 0, cr0, cr3, cr0, {0}
 8e8:	03000002 	movweq	r0, #2
 8ec:	00481430 	subeq	r1, r8, r0, lsr r4
 8f0:	f2050000 	vhadd.s8	d0, d5, d0
 8f4:	01000003 	tsteq	r0, r3
 8f8:	00770a0a 	rsbseq	r0, r7, sl, lsl #20
 8fc:	03600000 	cmneq	r0, #0
 900:	00060000 	andeq	r0, r6, r0
 904:	9c010000 	stcls	0, cr0, [r1], {-0}
 908:	00767206 	rsbseq	r7, r6, r6, lsl #4
 90c:	770b0c01 	strvc	r0, [fp, -r1, lsl #24]
 910:	00000000 	andeq	r0, r0, r0
 914:	00015400 	andeq	r5, r1, r0, lsl #8
 918:	01000400 	tsteq	r0, r0, lsl #8
 91c:	04000003 	streq	r0, [r0], #-3
 920:	0001ba01 	andeq	fp, r1, r1, lsl #20
 924:	03fe0c00 	mvnseq	r0, #0, 24
 928:	00160000 	andseq	r0, r6, r0
 92c:	00f80000 	rscseq	r0, r8, r0
 930:	00000000 	andeq	r0, r0, r0
 934:	07030000 	streq	r0, [r3, -r0]
 938:	04020000 	streq	r0, [r2], #-0
 93c:	00019e07 	andeq	r9, r1, r7, lsl #28
 940:	05040300 	streq	r0, [r4, #-768]	; 0xfffffd00
 944:	00746e69 	rsbseq	r6, r4, r9, ror #28
 948:	1a050802 	bne	142958 <_sidata+0x141568>
 94c:	02000001 	andeq	r0, r0, #1
 950:	016d0408 	cmneq	sp, r8, lsl #8
 954:	01020000 	mrseq	r0, (UNDEF: 2)
 958:	00015606 	andeq	r5, r1, r6, lsl #12
 95c:	08010200 	stmdaeq	r1, {r9}
 960:	00000154 	andeq	r0, r0, r4, asr r1
 964:	da050202 	ble	141174 <_sidata+0x13fd84>
 968:	02000000 	andeq	r0, r0, #0
 96c:	026e0702 	rsbeq	r0, lr, #524288	; 0x80000
 970:	04020000 	streq	r0, [r2], #-0
 974:	00011f05 	andeq	r1, r1, r5, lsl #30
 978:	02dc0400 	sbcseq	r0, ip, #0, 8
 97c:	4f020000 	svcmi	0x00020000
 980:	00007019 	andeq	r7, r0, r9, lsl r0
 984:	07040200 	streq	r0, [r4, -r0, lsl #4]
 988:	00000199 	muleq	r0, r9, r1
 98c:	94070802 	strls	r0, [r7], #-2050	; 0xfffff7fe
 990:	04000001 	streq	r0, [r0], #-1
 994:	00000366 	andeq	r0, r0, r6, ror #6
 998:	251ae802 	ldrcs	lr, [sl, #-2050]	; 0xfffff7fe
 99c:	02000000 	andeq	r0, r0, #0
 9a0:	015d0801 	cmpeq	sp, r1, lsl #16
 9a4:	de040000 	cdple	0, 0, cr0, cr4, cr0, {0}
 9a8:	03000002 	movweq	r0, #2
 9ac:	00641430 	rsbeq	r1, r4, r0, lsr r4
 9b0:	91050000 	mrsls	r0, (UNDEF: 5)
 9b4:	04000000 	streq	r0, [r0], #-0
 9b8:	00000368 	andeq	r0, r0, r8, ror #6
 9bc:	7e155203 	cdpvc	2, 1, cr5, cr5, cr3, {0}
 9c0:	06000000 	streq	r0, [r0], -r0
 9c4:	0000040a 	andeq	r0, r0, sl, lsl #8
 9c8:	2c051b01 			; <UNDEFINED> instruction: 0x2c051b01
 9cc:	68000000 	stmdavs	r0, {}	; <UNPREDICTABLE>
 9d0:	1c000003 	stcne	0, cr0, [r0], {3}
 9d4:	01000000 	mrseq	r0, (UNDEF: 0)
 9d8:	0000e79c 	muleq	r0, ip, r7
 9dc:	040f0700 	streq	r0, [pc], #-1792	; 9e4 <_printf_common+0x48>
 9e0:	1d010000 	stcne	0, cr0, [r1, #-0]
 9e4:	00002c06 	andeq	r2, r0, r6, lsl #24
 9e8:	74910200 	ldrvc	r0, [r1], #512	; 0x200
 9ec:	00041807 	andeq	r1, r4, r7, lsl #16
 9f0:	061e0100 	ldreq	r0, [lr], -r0, lsl #2
 9f4:	0000002c 	andeq	r0, r0, ip, lsr #32
 9f8:	00709102 	rsbseq	r9, r0, r2, lsl #2
 9fc:	00037c08 	andeq	r7, r3, r8, lsl #24
 a00:	0d120100 	ldfeqs	f0, [r2, #-0]
 a04:	00000000 	andeq	r0, r0, r0
 a08:	00000016 	andeq	r0, r0, r6, lsl r0
 a0c:	012b9c01 			; <UNDEFINED> instruction: 0x012b9c01
 a10:	77090000 	strvc	r0, [r9, -r0]
 a14:	01000003 	tsteq	r0, r3
 a18:	00a21f12 	adceq	r1, r2, r2, lsl pc
 a1c:	91020000 	mrsls	r0, (UNDEF: 2)
 a20:	038b0974 	orreq	r0, fp, #116, 18	; 0x1d0000
 a24:	12010000 	andne	r0, r1, #0
 a28:	0000912e 	andeq	r9, r0, lr, lsr #2
 a2c:	70910200 	addsvc	r0, r1, r0, lsl #4
 a30:	00037207 	andeq	r7, r3, r7, lsl #4
 a34:	15140100 	ldrne	r0, [r4, #-256]	; 0xffffff00
 a38:	0000012b 	andeq	r0, r0, fp, lsr #2
 a3c:	007c9102 	rsbseq	r9, ip, r2, lsl #2
 a40:	009d040a 	addseq	r0, sp, sl, lsl #8
 a44:	840b0000 	strhi	r0, [fp], #-0
 a48:	01000003 	tsteq	r0, r3
 a4c:	0091110d 	addseq	r1, r1, sp, lsl #2
 a50:	00000000 	andeq	r0, r0, r0
 a54:	000e0000 	andeq	r0, lr, r0
 a58:	9c010000 	stcls	0, cr0, [r1], {-0}
 a5c:	00037709 	andeq	r7, r3, r9, lsl #14
 a60:	220d0100 	andcs	r0, sp, #0, 2
 a64:	000000a2 	andeq	r0, r0, r2, lsr #1
 a68:	007c9102 	rsbseq	r9, ip, r2, lsl #2
	...

Disassembly of section .debug_abbrev:

00000000 <.debug_abbrev>:
   0:	10001101 	andne	r1, r0, r1, lsl #2
   4:	03065506 	movweq	r5, #25862	; 0x6506
   8:	250e1b0e 	strcs	r1, [lr, #-2830]	; 0xfffff4f2
   c:	0005130e 	andeq	r1, r5, lr, lsl #6
  10:	11010000 	mrsne	r0, (UNDEF: 1)
  14:	11061000 	mrsne	r1, (UNDEF: 6)
  18:	03011201 	movweq	r1, #4609	; 0x1201
  1c:	250e1b0e 	strcs	r1, [lr, #-2830]	; 0xfffff4f2
  20:	0005130e 	andeq	r1, r5, lr, lsl #6
  24:	11010000 	mrsne	r0, (UNDEF: 1)
  28:	130e2501 	movwne	r2, #58625	; 0xe501
  2c:	1b0e030b 	blne	380c60 <_sidata+0x37f870>
  30:	1117550e 	tstne	r7, lr, lsl #10
  34:	00171001 	andseq	r1, r7, r1
  38:	00240200 	eoreq	r0, r4, r0, lsl #4
  3c:	0b3e0b0b 	bleq	f82c70 <_sidata+0xf81880>
  40:	00000e03 	andeq	r0, r0, r3, lsl #28
  44:	03001603 	movweq	r1, #1539	; 0x603
  48:	3b0b3a0e 	blcc	2ce888 <_sidata+0x2cd498>
  4c:	490b390b 	stmdbmi	fp, {r0, r1, r3, r8, fp, ip, sp}
  50:	04000013 	streq	r0, [r0], #-19	; 0xffffffed
  54:	0b0b0024 	bleq	2c00ec <_sidata+0x2becfc>
  58:	08030b3e 	stmdaeq	r3, {r1, r2, r3, r4, r5, r8, r9, fp}
  5c:	0f050000 	svceq	0x00050000
  60:	490b0b00 	stmdbmi	fp, {r8, r9, fp}
  64:	06000013 			; <UNDEFINED> instruction: 0x06000013
  68:	0e030113 	mcreq	1, 0, r0, cr3, cr3, {0}
  6c:	0b3a0b0b 	bleq	e82ca0 <_sidata+0xe818b0>
  70:	0b390b3b 	bleq	e42d64 <_sidata+0xe41974>
  74:	00001301 	andeq	r1, r0, r1, lsl #6
  78:	03000d07 	movweq	r0, #3335	; 0xd07
  7c:	3b0b3a0e 	blcc	2ce8bc <_sidata+0x2cd4cc>
  80:	490b390b 	stmdbmi	fp, {r0, r1, r3, r8, fp, ip, sp}
  84:	000b3813 	andeq	r3, fp, r3, lsl r8
  88:	01010800 	tsteq	r1, r0, lsl #16
  8c:	13011349 	movwne	r1, #4937	; 0x1349
  90:	21090000 	mrscs	r0, (UNDEF: 9)
  94:	2f134900 	svccs	0x00134900
  98:	0a00000b 	beq	cc <__udivsi3+0x20>
  9c:	08030113 	stmdaeq	r3, {r0, r1, r4, r8}
  a0:	0b3a0b0b 	bleq	e82cd4 <_sidata+0xe818e4>
  a4:	0b390b3b 	bleq	e42d98 <_sidata+0xe419a8>
  a8:	00001301 	andeq	r1, r0, r1, lsl #6
  ac:	0300340b 	movweq	r3, #1035	; 0x40b
  b0:	3b0b3a0e 	blcc	2ce8f0 <_sidata+0x2cd500>
  b4:	490b390b 	stmdbmi	fp, {r0, r1, r3, r8, fp, ip, sp}
  b8:	02193f13 	andseq	r3, r9, #19, 30	; 0x4c
  bc:	0c000018 	stceq	0, cr0, [r0], {24}
  c0:	193f012e 	ldmdbne	pc!, {r1, r2, r3, r5, r8}	; <UNPREDICTABLE>
  c4:	0b3a0e03 	bleq	e838d8 <_sidata+0xe824e8>
  c8:	0b390b3b 	bleq	e42dbc <_sidata+0xe419cc>
  cc:	13491927 	movtne	r1, #39207	; 0x9927
  d0:	06120111 			; <UNDEFINED> instruction: 0x06120111
  d4:	42961840 	addsmi	r1, r6, #64, 16	; 0x400000
  d8:	00130119 	andseq	r0, r3, r9, lsl r1
  dc:	00050d00 	andeq	r0, r5, r0, lsl #26
  e0:	0b3a0e03 	bleq	e838f4 <_sidata+0xe82504>
  e4:	0b390b3b 	bleq	e42dd8 <_sidata+0xe419e8>
  e8:	18021349 	stmdane	r2, {r0, r3, r6, r8, r9, ip}
  ec:	050e0000 	streq	r0, [lr, #-0]
  f0:	3a080300 	bcc	200cf8 <_sidata+0x1ff908>
  f4:	390b3b0b 	stmdbcc	fp, {r0, r1, r3, r8, r9, fp, ip, sp}
  f8:	0213490b 	andseq	r4, r3, #180224	; 0x2c000
  fc:	0f000018 	svceq	0x00000018
 100:	193f002e 	ldmdbne	pc!, {r1, r2, r3, r5}	; <UNPREDICTABLE>
 104:	0b3a0e03 	bleq	e83918 <_sidata+0xe82528>
 108:	0b390b3b 	bleq	e42dfc <_sidata+0xe41a0c>
 10c:	13491927 	movtne	r1, #39207	; 0x9927
 110:	06120111 			; <UNDEFINED> instruction: 0x06120111
 114:	42961840 	addsmi	r1, r6, #64, 16	; 0x400000
 118:	10000019 	andne	r0, r0, r9, lsl r0
 11c:	193f012e 	ldmdbne	pc!, {r1, r2, r3, r5, r8}	; <UNPREDICTABLE>
 120:	0b3a0e03 	bleq	e83934 <_sidata+0xe82544>
 124:	0b390b3b 	bleq	e42e18 <_sidata+0xe41a28>
 128:	13491927 	movtne	r1, #39207	; 0x9927
 12c:	06120111 			; <UNDEFINED> instruction: 0x06120111
 130:	42971840 	addsmi	r1, r7, #64, 16	; 0x400000
 134:	00130119 	andseq	r0, r3, r9, lsl r1
 138:	00181100 	andseq	r1, r8, r0, lsl #2
 13c:	34120000 	ldrcc	r0, [r2], #-0
 140:	3a0e0300 	bcc	380d48 <_sidata+0x37f958>
 144:	390b3b0b 	stmdbcc	fp, {r0, r1, r3, r8, r9, fp, ip, sp}
 148:	0213490b 	andseq	r4, r3, #180224	; 0x2c000
 14c:	13000018 	movwne	r0, #24
 150:	193f012e 	ldmdbne	pc!, {r1, r2, r3, r5, r8}	; <UNPREDICTABLE>
 154:	0b3a0e03 	bleq	e83968 <_sidata+0xe82578>
 158:	0b390b3b 	bleq	e42e4c <_sidata+0xe41a5c>
 15c:	01871927 	orreq	r1, r7, r7, lsr #18
 160:	12011119 	andne	r1, r1, #1073741830	; 0x40000006
 164:	96184006 	ldrls	r4, [r8], -r6
 168:	13011942 	movwne	r1, #6466	; 0x1942
 16c:	2e140000 	cdpcs	0, 1, cr0, cr4, cr0, {0}
 170:	03193f00 	tsteq	r9, #0, 30
 174:	3b0b3a0e 	blcc	2ce9b4 <_sidata+0x2cd5c4>
 178:	270b390b 	strcs	r3, [fp, -fp, lsl #18]
 17c:	11134919 	tstne	r3, r9, lsl r9
 180:	40061201 	andmi	r1, r6, r1, lsl #4
 184:	19429718 	stmdbne	r2, {r3, r4, r8, r9, sl, ip, pc}^
 188:	2e150000 	cdpcs	0, 1, cr0, cr5, cr0, {0}
 18c:	03193f00 	tsteq	r9, #0, 30
 190:	3b0b3a0e 	blcc	2ce9d0 <_sidata+0x2cd5e0>
 194:	110b390b 	tstne	fp, fp, lsl #18
 198:	40061201 	andmi	r1, r6, r1, lsl #4
 19c:	19429718 	stmdbne	r2, {r3, r4, r8, r9, sl, ip, pc}^
 1a0:	01000000 	mrseq	r0, (UNDEF: 0)
 1a4:	0e250111 	mcreq	1, 1, r0, cr5, cr1, {0}
 1a8:	0e030b13 	vmoveq.32	d3[0], r0
 1ac:	17550e1b 	smmlane	r5, fp, lr, r0
 1b0:	17100111 			; <UNDEFINED> instruction: 0x17100111
 1b4:	24020000 	strcs	r0, [r2], #-0
 1b8:	3e0b0b00 	vmlacc.f64	d0, d11, d0
 1bc:	000e030b 	andeq	r0, lr, fp, lsl #6
 1c0:	00160300 	andseq	r0, r6, r0, lsl #6
 1c4:	0b3a0e03 	bleq	e839d8 <_sidata+0xe825e8>
 1c8:	0b390b3b 	bleq	e42ebc <_sidata+0xe41acc>
 1cc:	00001349 	andeq	r1, r0, r9, asr #6
 1d0:	0b002404 	bleq	91e8 <_sidata+0x7df8>
 1d4:	030b3e0b 	movweq	r3, #48651	; 0xbe0b
 1d8:	05000008 	streq	r0, [r0, #-8]
 1dc:	13490035 	movtne	r0, #36917	; 0x9035
 1e0:	2e060000 	cdpcs	0, 0, cr0, cr6, cr0, {0}
 1e4:	03193f01 	tsteq	r9, #1, 30
 1e8:	3b0b3a0e 	blcc	2cea28 <_sidata+0x2cd638>
 1ec:	270b390b 	strcs	r3, [fp, -fp, lsl #18]
 1f0:	11134919 	tstne	r3, r9, lsl r9
 1f4:	40061201 	andmi	r1, r6, r1, lsl #4
 1f8:	19429618 	stmdbne	r2, {r3, r4, r9, sl, ip, pc}^
 1fc:	00001301 	andeq	r1, r0, r1, lsl #6
 200:	03000507 	movweq	r0, #1287	; 0x507
 204:	3b0b3a08 	blcc	2cea2c <_sidata+0x2cd63c>
 208:	490b390b 	stmdbmi	fp, {r0, r1, r3, r8, fp, ip, sp}
 20c:	00180213 	andseq	r0, r8, r3, lsl r2
 210:	012e0800 			; <UNDEFINED> instruction: 0x012e0800
 214:	0b3a0e03 	bleq	e83a28 <_sidata+0xe82638>
 218:	0b390b3b 	bleq	e42f0c <_sidata+0xe41b1c>
 21c:	01111927 	tsteq	r1, r7, lsr #18
 220:	18400612 	stmdane	r0, {r1, r4, r9, sl}^
 224:	01194297 			; <UNDEFINED> instruction: 0x01194297
 228:	09000013 	stmdbeq	r0, {r0, r1, r4}
 22c:	0e030005 	cdpeq	0, 0, cr0, cr3, cr5, {0}
 230:	0b3b0b3a 	bleq	ec2f20 <_sidata+0xec1b30>
 234:	13490b39 	movtne	r0, #39737	; 0x9b39
 238:	00001802 	andeq	r1, r0, r2, lsl #16
 23c:	0300340a 	movweq	r3, #1034	; 0x40a
 240:	3b0b3a0e 	blcc	2cea80 <_sidata+0x2cd690>
 244:	490b390b 	stmdbmi	fp, {r0, r1, r3, r8, fp, ip, sp}
 248:	00180213 	andseq	r0, r8, r3, lsl r2
 24c:	000f0b00 	andeq	r0, pc, r0, lsl #22
 250:	13490b0b 	movtne	r0, #39691	; 0x9b0b
 254:	2e0c0000 	cdpcs	0, 0, cr0, cr12, cr0, {0}
 258:	3a0e0301 	bcc	380e64 <_sidata+0x37fa74>
 25c:	390b3b0b 	stmdbcc	fp, {r0, r1, r3, r8, r9, fp, ip, sp}
 260:	4919270b 	ldmdbmi	r9, {r0, r1, r3, r8, r9, sl, sp}
 264:	12011113 	andne	r1, r1, #-1073741820	; 0xc0000004
 268:	97184006 	ldrls	r4, [r8, -r6]
 26c:	00001942 	andeq	r1, r0, r2, asr #18
 270:	01110100 	tsteq	r1, r0, lsl #2
 274:	0b130e25 	bleq	4c3b10 <_sidata+0x4c2720>
 278:	0e1b0e03 	cdpeq	14, 1, cr0, cr11, cr3, {0}
 27c:	01111755 	tsteq	r1, r5, asr r7
 280:	00001710 	andeq	r1, r0, r0, lsl r7
 284:	3f002e02 	svccc	0x00002e02
 288:	3a0e0319 	bcc	380ef4 <_sidata+0x37fb04>
 28c:	390b3b0b 	stmdbcc	fp, {r0, r1, r3, r8, r9, fp, ip, sp}
 290:	1119270b 	tstne	r9, fp, lsl #14
 294:	40061201 	andmi	r1, r6, r1, lsl #4
 298:	19429718 	stmdbne	r2, {r3, r4, r8, r9, sl, ip, pc}^
 29c:	01000000 	mrseq	r0, (UNDEF: 0)
 2a0:	0e250111 	mcreq	1, 1, r0, cr5, cr1, {0}
 2a4:	0e030b13 	vmoveq.32	d3[0], r0
 2a8:	17550e1b 	smmlane	r5, fp, lr, r0
 2ac:	17100111 			; <UNDEFINED> instruction: 0x17100111
 2b0:	24020000 	strcs	r0, [r2], #-0
 2b4:	3e0b0b00 	vmlacc.f64	d0, d11, d0
 2b8:	000e030b 	andeq	r0, lr, fp, lsl #6
 2bc:	00160300 	andseq	r0, r6, r0, lsl #6
 2c0:	0b3a0e03 	bleq	e83ad4 <_sidata+0xe826e4>
 2c4:	0b390b3b 	bleq	e42fb8 <_sidata+0xe41bc8>
 2c8:	00001349 	andeq	r1, r0, r9, asr #6
 2cc:	0b002404 	bleq	92e4 <_sidata+0x7ef4>
 2d0:	030b3e0b 	movweq	r3, #48651	; 0xbe0b
 2d4:	05000008 	streq	r0, [r0, #-8]
 2d8:	193f012e 	ldmdbne	pc!, {r1, r2, r3, r5, r8}	; <UNPREDICTABLE>
 2dc:	0b3a0e03 	bleq	e83af0 <_sidata+0xe82700>
 2e0:	0b390b3b 	bleq	e42fd4 <_sidata+0xe41be4>
 2e4:	01111349 	tsteq	r1, r9, asr #6
 2e8:	18400612 	stmdane	r0, {r1, r4, r9, sl}^
 2ec:	00194297 	mulseq	r9, r7, r2
 2f0:	00340600 	eorseq	r0, r4, r0, lsl #12
 2f4:	0b3a0803 	bleq	e82308 <_sidata+0xe80f18>
 2f8:	0b390b3b 	bleq	e42fec <_sidata+0xe41bfc>
 2fc:	00001349 	andeq	r1, r0, r9, asr #6
 300:	01110100 	tsteq	r1, r0, lsl #2
 304:	0b130e25 	bleq	4c3ba0 <_sidata+0x4c27b0>
 308:	0e1b0e03 	cdpeq	14, 1, cr0, cr11, cr3, {0}
 30c:	01111755 	tsteq	r1, r5, asr r7
 310:	00001710 	andeq	r1, r0, r0, lsl r7
 314:	0b002402 	bleq	9324 <_sidata+0x7f34>
 318:	030b3e0b 	movweq	r3, #48651	; 0xbe0b
 31c:	0300000e 	movweq	r0, #14
 320:	0b0b0024 	bleq	2c03b8 <_sidata+0x2befc8>
 324:	08030b3e 	stmdaeq	r3, {r1, r2, r3, r4, r5, r8, r9, fp}
 328:	16040000 	strne	r0, [r4], -r0
 32c:	3a0e0300 	bcc	380f34 <_sidata+0x37fb44>
 330:	390b3b0b 	stmdbcc	fp, {r0, r1, r3, r8, r9, fp, ip, sp}
 334:	0013490b 	andseq	r4, r3, fp, lsl #18
 338:	00350500 	eorseq	r0, r5, r0, lsl #10
 33c:	00001349 	andeq	r1, r0, r9, asr #6
 340:	3f012e06 	svccc	0x00012e06
 344:	3a0e0319 	bcc	380fb0 <_sidata+0x37fbc0>
 348:	390b3b0b 	stmdbcc	fp, {r0, r1, r3, r8, r9, fp, ip, sp}
 34c:	4919270b 	ldmdbmi	r9, {r0, r1, r3, r8, r9, sl, sp}
 350:	12011113 	andne	r1, r1, #-1073741820	; 0xc0000004
 354:	96184006 	ldrls	r4, [r8], -r6
 358:	13011942 	movwne	r1, #6466	; 0x1942
 35c:	34070000 	strcc	r0, [r7], #-0
 360:	3a0e0300 	bcc	380f68 <_sidata+0x37fb78>
 364:	390b3b0b 	stmdbcc	fp, {r0, r1, r3, r8, r9, fp, ip, sp}
 368:	0213490b 	andseq	r4, r3, #180224	; 0x2c000
 36c:	08000018 	stmdaeq	r0, {r3, r4}
 370:	0e03012e 	adfeqsp	f0, f3, #0.5
 374:	0b3b0b3a 	bleq	ec3064 <_sidata+0xec1c74>
 378:	19270b39 	stmdbne	r7!, {r0, r3, r4, r5, r8, r9, fp}
 37c:	06120111 			; <UNDEFINED> instruction: 0x06120111
 380:	42971840 	addsmi	r1, r7, #64, 16	; 0x400000
 384:	00130119 	andseq	r0, r3, r9, lsl r1
 388:	00050900 	andeq	r0, r5, r0, lsl #18
 38c:	0b3a0e03 	bleq	e83ba0 <_sidata+0xe827b0>
 390:	0b390b3b 	bleq	e43084 <_sidata+0xe41c94>
 394:	18021349 	stmdane	r2, {r0, r3, r6, r8, r9, ip}
 398:	0f0a0000 	svceq	0x000a0000
 39c:	490b0b00 	stmdbmi	fp, {r8, r9, fp}
 3a0:	0b000013 	bleq	3f4 <iprintf+0x18>
 3a4:	0e03012e 	adfeqsp	f0, f3, #0.5
 3a8:	0b3b0b3a 	bleq	ec3098 <_sidata+0xec1ca8>
 3ac:	19270b39 	stmdbne	r7!, {r0, r3, r4, r5, r8, r9, fp}
 3b0:	01111349 	tsteq	r1, r9, asr #6
 3b4:	18400612 	stmdane	r0, {r1, r4, r9, sl}^
 3b8:	00194297 	mulseq	r9, r7, r2
	...

Disassembly of section .debug_aranges:

00000000 <.debug_aranges>:
   0:	00000024 	andeq	r0, r0, r4, lsr #32
   4:	00000002 	andeq	r0, r0, r2
   8:	00040000 	andeq	r0, r4, r0
   c:	00000000 	andeq	r0, r0, r0
  10:	000001c4 	andeq	r0, r0, r4, asr #3
  14:	00000050 	andeq	r0, r0, r0, asr r0
  18:	00000214 	andeq	r0, r0, r4, lsl r2
  1c:	00000026 	andeq	r0, r0, r6, lsr #32
	...
  28:	0000001c 	andeq	r0, r0, ip, lsl r0
  2c:	00220002 	eoreq	r0, r2, r2
  30:	00040000 	andeq	r0, r4, r0
  34:	00000000 	andeq	r0, r0, r0
  38:	0000023c 	andeq	r0, r0, ip, lsr r2
  3c:	00000024 	andeq	r0, r0, r4, lsr #32
	...
  48:	000000a4 	andeq	r0, r0, r4, lsr #1
  4c:	00480002 	subeq	r0, r8, r2
  50:	00040000 	andeq	r0, r4, r0
	...
  5c:	00000004 	andeq	r0, r0, r4
  60:	00000000 	andeq	r0, r0, r0
  64:	00000006 	andeq	r0, r0, r6
  68:	00000000 	andeq	r0, r0, r0
  6c:	0000001c 	andeq	r0, r0, ip, lsl r0
  70:	00000000 	andeq	r0, r0, r0
  74:	00000016 	andeq	r0, r0, r6, lsl r0
  78:	00000260 	andeq	r0, r0, r0, ror #4
  7c:	00000024 	andeq	r0, r0, r4, lsr #32
  80:	00000284 	andeq	r0, r0, r4, lsl #5
  84:	00000034 	andeq	r0, r0, r4, lsr r0
  88:	000002b8 			; <UNDEFINED> instruction: 0x000002b8
  8c:	0000000e 	andeq	r0, r0, lr
  90:	000002c6 	andeq	r0, r0, r6, asr #5
  94:	00000016 	andeq	r0, r0, r6, lsl r0
  98:	000002dc 	ldrdeq	r0, [r0], -ip
  9c:	0000000c 	andeq	r0, r0, ip
  a0:	000002e8 	andeq	r0, r0, r8, ror #5
  a4:	00000010 	andeq	r0, r0, r0, lsl r0
  a8:	00000000 	andeq	r0, r0, r0
  ac:	00000012 	andeq	r0, r0, r2, lsl r0
  b0:	00000000 	andeq	r0, r0, r0
  b4:	0000001a 	andeq	r0, r0, sl, lsl r0
  b8:	00000000 	andeq	r0, r0, r0
  bc:	0000001a 	andeq	r0, r0, sl, lsl r0
  c0:	00000000 	andeq	r0, r0, r0
  c4:	0000000e 	andeq	r0, r0, lr
  c8:	00000000 	andeq	r0, r0, r0
  cc:	00000016 	andeq	r0, r0, r6, lsl r0
  d0:	00000000 	andeq	r0, r0, r0
  d4:	0000001c 	andeq	r0, r0, ip, lsl r0
  d8:	00000000 	andeq	r0, r0, r0
  dc:	00000014 	andeq	r0, r0, r4, lsl r0
  e0:	00000000 	andeq	r0, r0, r0
  e4:	0000001e 	andeq	r0, r0, lr, lsl r0
	...
  f0:	0000002c 	andeq	r0, r0, ip, lsr #32
  f4:	06f60002 	ldrbteq	r0, [r6], r2
  f8:	00040000 	andeq	r0, r4, r0
  fc:	00000000 	andeq	r0, r0, r0
 100:	000002f8 	strdeq	r0, [r0], -r8
 104:	0000000e 	andeq	r0, r0, lr
 108:	00000306 	andeq	r0, r0, r6, lsl #6
 10c:	00000016 	andeq	r0, r0, r6, lsl r0
 110:	0000031c 	andeq	r0, r0, ip, lsl r3
 114:	00000040 	andeq	r0, r0, r0, asr #32
	...
 120:	0000001c 	andeq	r0, r0, ip, lsl r0
 124:	08370002 	ldmdaeq	r7!, {r1}
 128:	00040000 	andeq	r0, r4, r0
 12c:	00000000 	andeq	r0, r0, r0
 130:	0000035c 	andeq	r0, r0, ip, asr r3
 134:	00000004 	andeq	r0, r0, r4
	...
 140:	0000001c 	andeq	r0, r0, ip, lsl r0
 144:	086f0002 	stmdaeq	pc!, {r1}^	; <UNPREDICTABLE>
 148:	00040000 	andeq	r0, r4, r0
 14c:	00000000 	andeq	r0, r0, r0
 150:	00000360 	andeq	r0, r0, r0, ror #6
 154:	00000006 	andeq	r0, r0, r6
	...
 160:	0000002c 	andeq	r0, r0, ip, lsr #32
 164:	09150002 	ldmdbeq	r5, {r1}
 168:	00040000 	andeq	r0, r4, r0
	...
 174:	0000000e 	andeq	r0, r0, lr
 178:	00000000 	andeq	r0, r0, r0
 17c:	00000016 	andeq	r0, r0, r6, lsl r0
 180:	00000368 	andeq	r0, r0, r8, ror #6
 184:	0000001c 	andeq	r0, r0, ip, lsl r0
	...

Disassembly of section .debug_str:

00000000 <.debug_str>:
   0:	68637261 	stmdavs	r3!, {r0, r5, r6, r9, ip, sp, lr}^
   4:	726f632f 	rsbvc	r6, pc, #-1140850688	; 0xbc000000
   8:	2d786574 	cfldr64cs	mvdx6, [r8, #-464]!	; 0xfffffe30
   c:	622f316d 	eorvs	r3, pc, #1073741851	; 0x4000001b
  10:	2e746f6f 	cdpcs	15, 7, cr6, cr4, cr15, {3}
  14:	682f0053 	stmdavs	pc!, {r0, r1, r4, r6}	; <UNPREDICTABLE>
  18:	2f656d6f 	svccs	0x00656d6f
  1c:	72657073 	rsbvc	r7, r5, #115	; 0x73
  20:	61726965 	cmnvs	r2, r5, ror #18
  24:	6f72702f 	svcvs	0x0072702f
  28:	7463656a 	strbtvc	r6, [r3], #-1386	; 0xfffffa96
  2c:	6f772f73 	svcvs	0x00772f73
  30:	70736b72 	rsbsvc	r6, r3, r2, ror fp
  34:	2f656361 	svccs	0x00656361
  38:	74736574 	ldrbtvc	r6, [r3], #-1396	; 0xfffffa8c
  3c:	77656e5f 			; <UNDEFINED> instruction: 0x77656e5f
  40:	0062696c 	rsbeq	r6, r2, ip, ror #18
  44:	20554e47 	subscs	r4, r5, r7, asr #28
  48:	32205341 	eorcc	r5, r0, #67108865	; 0x4000001
  4c:	2e35332e 	cdpcs	3, 3, cr3, cr5, cr14, {1}
  50:	65740031 	ldrbvs	r0, [r4, #-49]!	; 0xffffffcf
  54:	65742f65 	ldrbvs	r2, [r4, #-3941]!	; 0xfffff09b
  58:	73695f65 	cmnvc	r9, #404	; 0x194
  5c:	00532e72 	subseq	r2, r3, r2, ror lr
  60:	725f7473 	subsvc	r7, pc, #1929379840	; 0x73000000
  64:	00766564 	rsbseq	r6, r6, r4, ror #10
  68:	636f6c63 	cmnvs	pc, #25344	; 0x6300
  6c:	00745f6b 	rsbseq	r5, r4, fp, ror #30
  70:	69766e65 	ldmdbvs	r6!, {r0, r2, r5, r6, r9, sl, fp, sp, lr}^
  74:	006e6f72 	rsbeq	r6, lr, r2, ror pc
  78:	65736c5f 	ldrbvs	r6, [r3, #-3167]!	; 0xfffff3a1
  7c:	74006b65 	strvc	r6, [r0], #-2917	; 0xfffff49b
  80:	635f736d 	cmpvs	pc, #-1275068415	; 0xb4000001
  84:	6d697475 	cfstrdvs	mvd7, [r9, #-468]!	; 0xfffffe2c
  88:	655f0065 	ldrbvs	r0, [pc, #-101]	; 2b <_vect_table+0x2b>
  8c:	76636578 			; <UNDEFINED> instruction: 0x76636578
  90:	76740065 	ldrbtvc	r0, [r4], -r5, rrx
  94:	6365735f 	cmnvs	r5, #2080374785	; 0x7c000001
  98:	74735f00 	ldrbtvc	r5, [r3], #-3840	; 0xfffff100
  9c:	73007461 	movwvc	r7, #1121	; 0x461
  a0:	74635f74 	strbtvc	r5, [r3], #-3956	; 0xfffff08c
  a4:	5f006d69 	svcpl	0x00006d69
  a8:	766e655f 			; <UNDEFINED> instruction: 0x766e655f
  ac:	78655f00 	stmdavc	r5!, {r8, r9, sl, fp, ip, lr}^
  b0:	5f007469 	svcpl	0x00007469
  b4:	74697277 	strbtvc	r7, [r9], #-631	; 0xfffffd89
  b8:	74730065 	ldrbtvc	r0, [r3], #-101	; 0xffffff9b
  bc:	7665645f 			; <UNDEFINED> instruction: 0x7665645f
  c0:	73665f00 	cmnvc	r6, #0, 30
  c4:	00746174 	rsbseq	r6, r4, r4, ror r1
  c8:	656c6966 	strbvs	r6, [ip, #-2406]!	; 0xfffff69a
  cc:	696b5f00 	stmdbvs	fp!, {r8, r9, sl, fp, ip, lr}^
  d0:	74006c6c 	strvc	r6, [r0], #-3180	; 0xfffff394
  d4:	5f656d69 	svcpl	0x00656d69
  d8:	68730074 	ldmdavs	r3!, {r2, r4, r5, r6}^
  dc:	2074726f 	rsbscs	r7, r4, pc, ror #4
  e0:	00746e69 	rsbseq	r6, r4, r9, ror #28
  e4:	6e695f5f 	mcrvs	15, 3, r5, cr9, cr15, {2}
  e8:	656c5f74 	strbvs	r5, [ip, #-3956]!	; 0xfffff08c
  ec:	36747361 	ldrbtcc	r7, [r4], -r1, ror #6
  f0:	00745f34 	rsbseq	r5, r4, r4, lsr pc
  f4:	625f7473 	subsvs	r7, pc, #1929379840	; 0x73000000
  f8:	69736b6c 	ldmdbvs	r3!, {r2, r3, r5, r6, r8, r9, fp, sp, lr}^
  fc:	6900657a 	stmdbvs	r0, {r1, r3, r4, r5, r6, r8, sl, sp, lr}
 100:	6974696e 	ldmdbvs	r4!, {r1, r2, r3, r5, r6, r8, fp, sp, lr}^
 104:	73696c61 	cmnvc	r9, #24832	; 0x6100
 108:	6f6d5f65 	svcvs	0x006d5f65
 10c:	6f74696e 	svcvs	0x0074696e
 110:	61685f72 	smcvs	34290	; 0x85f2
 114:	656c646e 	strbvs	r6, [ip, #-1134]!	; 0xfffffb92
 118:	6f6c0073 	svcvs	0x006c0073
 11c:	6c20676e 	stcvs	7, cr6, [r0], #-440	; 0xfffffe48
 120:	20676e6f 	rsbcs	r6, r7, pc, ror #28
 124:	00746e69 	rsbseq	r6, r4, r9, ror #28
 128:	675f7473 			; <UNDEFINED> instruction: 0x675f7473
 12c:	5f006469 	svcpl	0x00006469
 130:	646f6d5f 	strbtvs	r6, [pc], #-3423	; 138 <__udivsi3+0x8c>
 134:	00745f65 	rsbseq	r5, r4, r5, ror #30
 138:	5f736d74 	svcpl	0x00736d74
 13c:	69747363 	ldmdbvs	r4!, {r0, r1, r5, r6, r8, r9, ip, sp, lr}^
 140:	5f00656d 	svcpl	0x0000656d
 144:	656d6974 	strbvs	r6, [sp, #-2420]!	; 0xfffff68c
 148:	5f5f0073 	svcpl	0x005f0073
 14c:	6e696c6e 	cdpvs	12, 6, cr6, cr9, cr14, {3}
 150:	00745f6b 	rsbseq	r5, r4, fp, ror #30
 154:	69736e75 	ldmdbvs	r3!, {r0, r2, r4, r5, r6, r9, sl, fp, sp, lr}^
 158:	64656e67 	strbtvs	r6, [r5], #-3687	; 0xfffff199
 15c:	61686320 	cmnvs	r8, r0, lsr #6
 160:	616e0072 	smcvs	57346	; 0xe002
 164:	5f00656d 	svcpl	0x0000656d
 168:	74696177 	strbtvc	r6, [r9], #-375	; 0xfffffe89
 16c:	6e6f6c00 	cdpvs	12, 6, cr6, cr15, cr0, {0}
 170:	6f642067 	svcvs	0x00642067
 174:	656c6275 	strbvs	r6, [ip, #-629]!	; 0xfffffd8b
 178:	5f747300 	svcpl	0x00747300
 17c:	006f6e69 	rsbeq	r6, pc, r9, ror #28
 180:	6165725f 	cmnvs	r5, pc, asr r2
 184:	76740064 	ldrbtvc	r0, [r4], -r4, rrx
 188:	65736e5f 	ldrbvs	r6, [r3, #-3679]!	; 0xfffff1a1
 18c:	6c660063 	stclvs	0, cr0, [r6], #-396	; 0xfffffe74
 190:	00736761 	rsbseq	r6, r3, r1, ror #14
 194:	676e6f6c 	strbvs	r6, [lr, -ip, ror #30]!
 198:	6e6f6c20 	cdpvs	12, 6, cr6, cr15, cr0, {1}
 19c:	6e752067 	cdpvs	0, 7, cr2, cr5, cr7, {3}
 1a0:	6e676973 			; <UNDEFINED> instruction: 0x6e676973
 1a4:	69206465 	stmdbvs	r0!, {r0, r2, r5, r6, sl, sp, lr}
 1a8:	7300746e 	movwvc	r7, #1134	; 0x46e
 1ac:	6c6e5f74 	stclvs	15, cr5, [lr], #-464	; 0xfffffe30
 1b0:	006b6e69 	rsbeq	r6, fp, r9, ror #28
 1b4:	65706f5f 	ldrbvs	r6, [r0, #-3935]!	; 0xfffff0a1
 1b8:	4e47006e 	cdpmi	0, 4, cr0, cr7, cr14, {3}
 1bc:	31432055 	qdaddcc	r2, r5, r3
 1c0:	30312037 	eorscc	r2, r1, r7, lsr r0
 1c4:	312e322e 			; <UNDEFINED> instruction: 0x312e322e
 1c8:	32303220 	eorscc	r3, r0, #32, 4
 1cc:	30313130 	eorscc	r3, r1, r0, lsr r1
 1d0:	72282033 	eorvc	r2, r8, #51	; 0x33
 1d4:	61656c65 	cmnvs	r5, r5, ror #24
 1d8:	20296573 	eorcs	r6, r9, r3, ror r5
 1dc:	70636d2d 	rsbvc	r6, r3, sp, lsr #26
 1e0:	6f633d75 	svcvs	0x00633d75
 1e4:	78657472 	stmdavc	r5!, {r1, r4, r5, r6, sl, ip, sp, lr}^
 1e8:	20306d2d 	eorscs	r6, r0, sp, lsr #26
 1ec:	6c666d2d 	stclvs	13, cr6, [r6], #-180	; 0xffffff4c
 1f0:	2d74616f 	ldfcse	f6, [r4, #-444]!	; 0xfffffe44
 1f4:	3d696261 	sfmcc	f6, 2, [r9, #-388]!	; 0xfffffe7c
 1f8:	74666f73 	strbtvc	r6, [r6], #-3955	; 0xfffff08d
 1fc:	746d2d20 	strbtvc	r2, [sp], #-3360	; 0xfffff2e0
 200:	626d7568 	rsbvs	r7, sp, #104, 10	; 0x1a000000
 204:	616d2d20 	cmnvs	sp, r0, lsr #26
 208:	3d686372 	stclcc	3, cr6, [r8, #-456]!	; 0xfffffe38
 20c:	766d7261 	strbtvc	r7, [sp], -r1, ror #4
 210:	6d2d7336 	stcvs	3, cr7, [sp, #-216]!	; 0xffffff28
 214:	20672d20 	rsbcs	r2, r7, r0, lsr #26
 218:	20304f2d 	eorscs	r4, r0, sp, lsr #30
 21c:	7566662d 	strbvc	r6, [r6, #-1581]!	; 0xfffff9d3
 220:	6974636e 	ldmdbvs	r4!, {r1, r2, r3, r5, r6, r8, r9, sp, lr}^
 224:	732d6e6f 			; <UNDEFINED> instruction: 0x732d6e6f
 228:	69746365 	ldmdbvs	r4!, {r0, r2, r5, r6, r8, r9, sp, lr}^
 22c:	20736e6f 	rsbscs	r6, r3, pc, ror #28
 230:	6164662d 	cmnvs	r4, sp, lsr #12
 234:	732d6174 			; <UNDEFINED> instruction: 0x732d6174
 238:	69746365 	ldmdbvs	r4!, {r0, r2, r5, r6, r8, r9, sp, lr}^
 23c:	20736e6f 	rsbscs	r6, r3, pc, ror #28
 240:	6d6f662d 	stclvs	6, cr6, [pc, #-180]!	; 194 <__udivsi3+0xe8>
 244:	662d7469 	strtvs	r7, [sp], -r9, ror #8
 248:	656d6172 	strbvs	r6, [sp, #-370]!	; 0xfffffe8e
 24c:	696f702d 	stmdbvs	pc!, {r0, r2, r3, r5, ip, sp, lr}^	; <UNPREDICTABLE>
 250:	7265746e 	rsbvc	r7, r5, #1845493760	; 0x6e000000
 254:	67726100 	ldrbvs	r6, [r2, -r0, lsl #2]!
 258:	5f5f0076 	svcpl	0x005f0076
 25c:	736b6c62 	cmnvc	fp, #25088	; 0x6200
 260:	5f657a69 	svcpl	0x00657a69
 264:	74730074 	ldrbtvc	r0, [r3], #-116	; 0xffffff8c
 268:	6974615f 	ldmdbvs	r4!, {r0, r1, r2, r3, r4, r6, r8, sp, lr}^
 26c:	6873006d 	ldmdavs	r3!, {r0, r2, r3, r5, r6}^
 270:	2074726f 	rsbscs	r7, r4, pc, ror #4
 274:	69736e75 	ldmdbvs	r3!, {r0, r2, r4, r5, r6, r9, sl, fp, sp, lr}^
 278:	64656e67 	strbtvs	r6, [r5], #-3687	; 0xfffff199
 27c:	746e6920 	strbtvc	r6, [lr], #-2336	; 0xfffff6e0
 280:	61747300 	cmnvs	r4, r0, lsl #6
 284:	00737574 	rsbseq	r7, r3, r4, ror r5
 288:	6f6c635f 	svcvs	0x006c635f
 28c:	73006573 	movwvc	r6, #1395	; 0x573
 290:	6c625f74 	stclvs	15, cr5, [r2], #-464	; 0xfffffe30
 294:	736b636f 	cmnvc	fp, #-1140850687	; 0xbc000001
 298:	73695f00 	cmnvc	r9, #0, 30
 29c:	79747461 	ldmdbvc	r4!, {r0, r5, r6, sl, ip, sp, lr}^
 2a0:	5f747300 	svcpl	0x00747300
 2a4:	6d69746d 	cfstrdvs	mvd7, [r9, #-436]!	; 0xfffffe4c
 2a8:	695f5f00 	ldmdbvs	pc, {r8, r9, sl, fp, ip, lr}^	; <UNPREDICTABLE>
 2ac:	745f6f6e 	ldrbvc	r6, [pc], #-3950	; 2b4 <_write+0x30>
 2b0:	736d7400 	cmnvc	sp, #0, 8
 2b4:	6974735f 	ldmdbvs	r4!, {r0, r1, r2, r3, r4, r6, r8, r9, ip, sp, lr}^
 2b8:	7300656d 	movwvc	r6, #1389	; 0x56d
 2bc:	69755f74 	ldmdbvs	r5!, {r2, r4, r5, r6, r8, r9, sl, fp, ip, lr}^
 2c0:	74730064 	ldrbtvc	r0, [r3], #-100	; 0xffffff9c
 2c4:	7a69735f 	bvc	1a5d048 <_sidata+0x1a5bc58>
 2c8:	74730065 	ldrbtvc	r0, [r3], #-101	; 0xffffff9b
 2cc:	6170735f 	cmnvs	r0, pc, asr r3
 2d0:	00346572 	eorseq	r6, r4, r2, ror r5
 2d4:	61746144 	cmnvs	r4, r4, asr #2
 2d8:	00786449 	rsbseq	r6, r8, r9, asr #8
 2dc:	69755f5f 	ldmdbvs	r5!, {r0, r1, r2, r3, r4, r6, r8, r9, sl, fp, ip, lr}^
 2e0:	3233746e 	eorscc	r7, r3, #1845493760	; 0x6e000000
 2e4:	5f00745f 	svcpl	0x0000745f
 2e8:	6b726f66 	blvs	1c9c088 <_sidata+0x1c9ac98>
 2ec:	65675f00 	strbvs	r5, [r7, #-3840]!	; 0xfffff100
 2f0:	64697074 	strbtvs	r7, [r9], #-116	; 0xffffff8c
 2f4:	645f5f00 	ldrbvs	r5, [pc], #-3840	; 2fc <read32+0x4>
 2f8:	745f7665 	ldrbvc	r7, [pc], #-1637	; 300 <read32+0x8>
 2fc:	6f5f5f00 	svcvs	0x005f5f00
 300:	745f6666 	ldrbvc	r6, [pc], #-1638	; 308 <write32+0x2>
 304:	74617000 	strbtvc	r7, [r1], #-0
 308:	72610068 	rsbvc	r0, r1, #104	; 0x68
 30c:	632f6863 			; <UNDEFINED> instruction: 0x632f6863
 310:	6574726f 	ldrbvs	r7, [r4, #-623]!	; 0xfffffd91
 314:	316d2d78 	smccc	53976	; 0xd2d8
 318:	77656e2f 	strbvc	r6, [r5, -pc, lsr #28]!
 31c:	2e62696c 	vnmulcs.f16	s13, s4, s25	; <UNPREDICTABLE>
 320:	69740063 	ldmdbvs	r4!, {r0, r1, r5, r6}^
 324:	7073656d 	rsbsvc	r6, r3, sp, ror #10
 328:	5f006365 	svcpl	0x00006365
 32c:	6469755f 	strbtvs	r7, [r9], #-1375	; 0xfffffaa1
 330:	7300745f 	movwvc	r7, #1119	; 0x45f
 334:	6f6d5f74 	svcvs	0x006d5f74
 338:	74006564 	strvc	r6, [r0], #-1380	; 0xfffffa9c
 33c:	755f736d 	ldrbvc	r7, [pc, #-877]	; ffffffd7 <_estack+0xdfffefd7>
 340:	656d6974 	strbvs	r6, [sp, #-2420]!	; 0xfffff68c
 344:	6e755f00 	cdpvs	15, 7, cr5, cr5, cr0, {0}
 348:	6b6e696c 	blvs	1b9a900 <_sidata+0x1b99510>
 34c:	625f5f00 	subsvs	r5, pc, #0, 30
 350:	6e636b6c 	vnmulvs.f64	d22, d3, d28
 354:	00745f74 	rsbseq	r5, r4, r4, ror pc
 358:	6e696c5f 	mcrvs	12, 3, r6, cr9, cr15, {2}
 35c:	5f5f006b 	svcpl	0x005f006b
 360:	5f646967 	svcpl	0x00646967
 364:	5f5f0074 	svcpl	0x005f0074
 368:	746e6975 	strbtvc	r6, [lr], #-2421	; 0xfffff68b
 36c:	5f727470 	svcpl	0x00727470
 370:	6f4c0074 	svcvs	0x004c0074
 374:	416c6163 	cmnmi	ip, r3, ror #2
 378:	00726464 	rsbseq	r6, r2, r4, ror #8
 37c:	74697277 	strbtvc	r7, [r9], #-631	; 0xfffffd89
 380:	00323365 	eorseq	r3, r2, r5, ror #6
 384:	64616572 	strbtvs	r6, [r1], #-1394	; 0xfffffa8e
 388:	56003233 			; <UNDEFINED> instruction: 0x56003233
 38c:	65756c61 	ldrbvs	r6, [r5, #-3169]!	; 0xfffff39f
 390:	72617500 	rsbvc	r7, r1, #0, 10
 394:	74696c74 	strbtvc	r6, [r9], #-3188	; 0xfffff38c
 398:	75705f65 	ldrbvc	r5, [r0, #-3941]!	; 0xfffff09b
 39c:	61686374 	smcvs	34356	; 0x8634
 3a0:	72610072 	rsbvc	r0, r1, #114	; 0x72
 3a4:	632f6863 			; <UNDEFINED> instruction: 0x632f6863
 3a8:	6574726f 	ldrbvs	r7, [r4, #-623]!	; 0xfffffd91
 3ac:	316d2d78 	smccc	53976	; 0xd2d8
 3b0:	7261752f 	rsbvc	r7, r1, #197132288	; 0xbc00000
 3b4:	72645f74 	rsbvc	r5, r4, #116, 30	; 0x1d0
 3b8:	72657669 	rsbvc	r7, r5, #110100480	; 0x6900000
 3bc:	6100632e 	tstvs	r0, lr, lsr #6
 3c0:	2f686372 	svccs	0x00686372
 3c4:	74726f63 	ldrbtvc	r6, [r2], #-3939	; 0xfffff09d
 3c8:	6d2d7865 	stcvs	8, cr7, [sp, #-404]!	; 0xfffffe6c
 3cc:	79732f31 	ldmdbvc	r3!, {r0, r4, r5, r8, r9, sl, fp, sp}^
 3d0:	6d657473 	cfstrdvs	mvd7, [r5, #-460]!	; 0xfffffe34
 3d4:	5300632e 	movwpl	r6, #814	; 0x32e
 3d8:	65747379 	ldrbvs	r7, [r4, #-889]!	; 0xfffffc87
 3dc:	696e496d 	stmdbvs	lr!, {r0, r2, r3, r5, r6, r8, fp, lr}^
 3e0:	65740074 	ldrbvs	r0, [r4, #-116]!	; 0xffffff8c
 3e4:	65742f65 	ldrbvs	r2, [r4, #-3941]!	; 0xfffff09b
 3e8:	6e655f65 	cdpvs	15, 6, cr5, cr5, cr5, {3}
 3ec:	2e797274 	mrccs	2, 3, r7, cr9, cr4, {3}
 3f0:	5f5f0063 	svcpl	0x005f0063
 3f4:	5f656574 	svcpl	0x00656574
 3f8:	72746e65 	rsbsvc	r6, r4, #1616	; 0x650
 3fc:	70610079 	rsbvc	r0, r1, r9, ror r0
 400:	6d2f7370 	stcvs	3, cr7, [pc, #-448]!	; 248 <tee_interrupt_handler+0xc>
 404:	2e6e6961 	vnmulcs.f16	s13, s28, s3	; <UNPREDICTABLE>
 408:	616d0063 	cmnvs	sp, r3, rrx
 40c:	66006e69 	strvs	r6, [r0], -r9, ror #28
 410:	75645f64 	strbvc	r5, [r4, #-3940]!	; 0xfffff09c
 414:	00796d6d 	rsbseq	r6, r9, sp, ror #26
 418:	75736572 	ldrbvc	r6, [r3, #-1394]!	; 0xfffffa8e
 41c:	Address 0x000000000000041c is out of bounds.


Disassembly of section .debug_ranges:

00000000 <.debug_ranges>:
   0:	ffffffff 			; <UNDEFINED> instruction: 0xffffffff
   4:	00000000 	andeq	r0, r0, r0
   8:	000001c4 	andeq	r0, r0, r4, asr #3
   c:	00000214 	andeq	r0, r0, r4, lsl r2
  10:	00000214 	andeq	r0, r0, r4, lsl r2
  14:	0000023a 	andeq	r0, r0, sl, lsr r2
	...
  20:	00000001 	andeq	r0, r0, r1
  24:	00000001 	andeq	r0, r0, r1
  28:	00000001 	andeq	r0, r0, r1
  2c:	00000001 	andeq	r0, r0, r1
  30:	00000001 	andeq	r0, r0, r1
  34:	00000001 	andeq	r0, r0, r1
  38:	00000001 	andeq	r0, r0, r1
  3c:	00000001 	andeq	r0, r0, r1
  40:	00000260 	andeq	r0, r0, r0, ror #4
  44:	00000284 	andeq	r0, r0, r4, lsl #5
  48:	00000284 	andeq	r0, r0, r4, lsl #5
  4c:	000002b8 			; <UNDEFINED> instruction: 0x000002b8
  50:	000002b8 			; <UNDEFINED> instruction: 0x000002b8
  54:	000002c6 	andeq	r0, r0, r6, asr #5
  58:	000002c6 	andeq	r0, r0, r6, asr #5
  5c:	000002dc 	ldrdeq	r0, [r0], -ip
  60:	000002dc 	ldrdeq	r0, [r0], -ip
  64:	000002e8 	andeq	r0, r0, r8, ror #5
  68:	000002e8 	andeq	r0, r0, r8, ror #5
  6c:	000002f8 	strdeq	r0, [r0], -r8
  70:	00000001 	andeq	r0, r0, r1
  74:	00000001 	andeq	r0, r0, r1
  78:	00000001 	andeq	r0, r0, r1
  7c:	00000001 	andeq	r0, r0, r1
  80:	00000001 	andeq	r0, r0, r1
  84:	00000001 	andeq	r0, r0, r1
  88:	00000001 	andeq	r0, r0, r1
  8c:	00000001 	andeq	r0, r0, r1
  90:	00000001 	andeq	r0, r0, r1
  94:	00000001 	andeq	r0, r0, r1
  98:	00000001 	andeq	r0, r0, r1
  9c:	00000001 	andeq	r0, r0, r1
  a0:	00000001 	andeq	r0, r0, r1
  a4:	00000001 	andeq	r0, r0, r1
  a8:	00000001 	andeq	r0, r0, r1
  ac:	00000001 	andeq	r0, r0, r1
	...
  b8:	000002f8 	strdeq	r0, [r0], -r8
  bc:	00000306 	andeq	r0, r0, r6, lsl #6
  c0:	00000306 	andeq	r0, r0, r6, lsl #6
  c4:	0000031c 	andeq	r0, r0, ip, lsl r3
  c8:	0000031c 	andeq	r0, r0, ip, lsl r3
  cc:	0000035c 	andeq	r0, r0, ip, asr r3
	...
  d8:	0000035c 	andeq	r0, r0, ip, asr r3
  dc:	00000360 	andeq	r0, r0, r0, ror #6
	...
  e8:	00000360 	andeq	r0, r0, r0, ror #6
  ec:	00000366 	andeq	r0, r0, r6, ror #6
	...
  f8:	00000001 	andeq	r0, r0, r1
  fc:	00000001 	andeq	r0, r0, r1
 100:	00000001 	andeq	r0, r0, r1
 104:	00000001 	andeq	r0, r0, r1
 108:	00000368 	andeq	r0, r0, r8, ror #6
 10c:	00000384 	andeq	r0, r0, r4, lsl #7
	...

Disassembly of section .comment:

00000000 <.comment>:
   0:	3a434347 	bcc	10d0d24 <_sidata+0x10cf934>
   4:	4e472820 	cdpmi	8, 4, cr2, cr7, cr0, {1}
   8:	72412055 	subvc	r2, r1, #85	; 0x55
   c:	6d45206d 	stclvs	0, cr2, [r5, #-436]	; 0xfffffe4c
  10:	64646562 	strbtvs	r6, [r4], #-1378	; 0xfffffa9e
  14:	54206465 	strtpl	r6, [r0], #-1125	; 0xfffffb9b
  18:	636c6f6f 	cmnvs	ip, #444	; 0x1bc
  1c:	6e696168 	powvsez	f6, f1, #0.0
  20:	2d303120 	ldfcss	f3, [r0, #-128]!	; 0xffffff80
  24:	30323032 	eorscc	r3, r2, r2, lsr r0
  28:	2d34712d 	ldfcss	f7, [r4, #-180]!	; 0xffffff4c
  2c:	6f6a616d 	svcvs	0x006a616d
  30:	31202972 			; <UNDEFINED> instruction: 0x31202972
  34:	2e322e30 	mrccs	14, 1, r2, cr2, cr0, {1}
  38:	30322031 	eorscc	r2, r2, r1, lsr r0
  3c:	31313032 	teqcc	r1, r2, lsr r0
  40:	28203330 	stmdacs	r0!, {r4, r5, r8, r9, ip, sp}
  44:	656c6572 	strbvs	r6, [ip, #-1394]!	; 0xfffffa8e
  48:	29657361 	stmdbcs	r5!, {r0, r5, r6, r8, r9, ip, sp, lr}^
	...

Disassembly of section .debug_frame:

00000000 <.debug_frame>:
   0:	0000000c 	andeq	r0, r0, ip
   4:	ffffffff 			; <UNDEFINED> instruction: 0xffffffff
   8:	7c020001 	stcvc	0, cr0, [r2], {1}
   c:	000d0c0e 	andeq	r0, sp, lr, lsl #24
  10:	0000000c 	andeq	r0, r0, ip
	...
  1c:	00000004 	andeq	r0, r0, r4
  20:	0000000c 	andeq	r0, r0, ip
	...
  2c:	00000006 	andeq	r0, r0, r6
  30:	00000014 	andeq	r0, r0, r4, lsl r0
	...
  3c:	0000001c 	andeq	r0, r0, ip, lsl r0
  40:	8e040e41 	cdphi	14, 0, cr0, cr4, cr1, {2}
  44:	100e4101 	andne	r4, lr, r1, lsl #2
  48:	00000014 	andeq	r0, r0, r4, lsl r0
	...
  54:	00000016 	andeq	r0, r0, r6, lsl r0
  58:	8e040e41 	cdphi	14, 0, cr0, cr4, cr1, {2}
  5c:	100e4101 	andne	r4, lr, r1, lsl #2
  60:	00000010 	andeq	r0, r0, r0, lsl r0
  64:	00000000 	andeq	r0, r0, r0
  68:	00000260 	andeq	r0, r0, r0, ror #4
  6c:	00000024 	andeq	r0, r0, r4, lsr #32
  70:	00180e41 	andseq	r0, r8, r1, asr #28
  74:	00000014 	andeq	r0, r0, r4, lsl r0
  78:	00000000 	andeq	r0, r0, r0
  7c:	00000284 	andeq	r0, r0, r4, lsl #5
  80:	00000034 	andeq	r0, r0, r4, lsr r0
  84:	8e040e41 	cdphi	14, 0, cr0, cr4, cr1, {2}
  88:	200e4101 	andcs	r4, lr, r1, lsl #2
  8c:	00000010 	andeq	r0, r0, r0, lsl r0
  90:	00000000 	andeq	r0, r0, r0
  94:	000002b8 			; <UNDEFINED> instruction: 0x000002b8
  98:	0000000e 	andeq	r0, r0, lr
  9c:	00080e41 	andeq	r0, r8, r1, asr #28
  a0:	00000010 	andeq	r0, r0, r0, lsl r0
  a4:	00000000 	andeq	r0, r0, r0
  a8:	000002c6 	andeq	r0, r0, r6, asr #5
  ac:	00000016 	andeq	r0, r0, r6, lsl r0
  b0:	00080e41 	andeq	r0, r8, r1, asr #28
  b4:	00000010 	andeq	r0, r0, r0, lsl r0
  b8:	00000000 	andeq	r0, r0, r0
  bc:	000002dc 	ldrdeq	r0, [r0], -ip
  c0:	0000000c 	andeq	r0, r0, ip
  c4:	00080e41 	andeq	r0, r8, r1, asr #28
  c8:	00000010 	andeq	r0, r0, r0, lsl r0
  cc:	00000000 	andeq	r0, r0, r0
  d0:	000002e8 	andeq	r0, r0, r8, ror #5
  d4:	00000010 	andeq	r0, r0, r0, lsl r0
  d8:	00100e41 	andseq	r0, r0, r1, asr #28
  dc:	00000014 	andeq	r0, r0, r4, lsl r0
	...
  e8:	00000012 	andeq	r0, r0, r2, lsl r0
  ec:	410c0e41 	tstmi	ip, r1, asr #28
  f0:	0000180e 	andeq	r1, r0, lr, lsl #16
  f4:	00000014 	andeq	r0, r0, r4, lsl r0
	...
 100:	0000001a 	andeq	r0, r0, sl, lsl r0
 104:	8e040e41 	cdphi	14, 0, cr0, cr4, cr1, {2}
 108:	100e4101 	andne	r4, lr, r1, lsl #2
 10c:	00000014 	andeq	r0, r0, r4, lsl r0
	...
 118:	0000001a 	andeq	r0, r0, sl, lsl r0
 11c:	8e040e41 	cdphi	14, 0, cr0, cr4, cr1, {2}
 120:	100e4101 	andne	r4, lr, r1, lsl #2
 124:	00000010 	andeq	r0, r0, r0, lsl r0
	...
 130:	0000000e 	andeq	r0, r0, lr
 134:	00080e41 	andeq	r0, r8, r1, asr #28
 138:	00000010 	andeq	r0, r0, r0, lsl r0
	...
 144:	00000016 	andeq	r0, r0, r6, lsl r0
 148:	00080e41 	andeq	r0, r8, r1, asr #28
 14c:	00000014 	andeq	r0, r0, r4, lsl r0
	...
 158:	0000001c 	andeq	r0, r0, ip, lsl r0
 15c:	8e040e41 	cdphi	14, 0, cr0, cr4, cr1, {2}
 160:	100e4101 	andne	r4, lr, r1, lsl #2
 164:	00000014 	andeq	r0, r0, r4, lsl r0
	...
 170:	00000014 	andeq	r0, r0, r4, lsl r0
 174:	84080e41 	strhi	r0, [r8], #-3649	; 0xfffff1bf
 178:	00018e02 	andeq	r8, r1, r2, lsl #28
 17c:	00000014 	andeq	r0, r0, r4, lsl r0
	...
 188:	0000001e 	andeq	r0, r0, lr, lsl r0
 18c:	8e040e41 	cdphi	14, 0, cr0, cr4, cr1, {2}
 190:	180e4101 	stmdane	lr, {r0, r8, lr}
 194:	0000000c 	andeq	r0, r0, ip
 198:	ffffffff 			; <UNDEFINED> instruction: 0xffffffff
 19c:	7c020001 	stcvc	0, cr0, [r2], {1}
 1a0:	000d0c0e 	andeq	r0, sp, lr, lsl #24
 1a4:	00000010 	andeq	r0, r0, r0, lsl r0
 1a8:	00000194 	muleq	r0, r4, r1
 1ac:	000002f8 	strdeq	r0, [r0], -r8
 1b0:	0000000e 	andeq	r0, r0, lr
 1b4:	00080e41 	andeq	r0, r8, r1, asr #28
 1b8:	00000010 	andeq	r0, r0, r0, lsl r0
 1bc:	00000194 	muleq	r0, r4, r1
 1c0:	00000306 	andeq	r0, r0, r6, lsl #6
 1c4:	00000016 	andeq	r0, r0, r6, lsl r0
 1c8:	00100e41 	andseq	r0, r0, r1, asr #28
 1cc:	00000014 	andeq	r0, r0, r4, lsl r0
 1d0:	00000194 	muleq	r0, r4, r1
 1d4:	0000031c 	andeq	r0, r0, ip, lsl r3
 1d8:	00000040 	andeq	r0, r0, r0, asr #32
 1dc:	8e040e41 	cdphi	14, 0, cr0, cr4, cr1, {2}
 1e0:	100e4101 	andne	r4, lr, r1, lsl #2
 1e4:	0000000c 	andeq	r0, r0, ip
 1e8:	ffffffff 			; <UNDEFINED> instruction: 0xffffffff
 1ec:	7c020001 	stcvc	0, cr0, [r2], {1}
 1f0:	000d0c0e 	andeq	r0, sp, lr, lsl #24
 1f4:	0000000c 	andeq	r0, r0, ip
 1f8:	000001e4 	andeq	r0, r0, r4, ror #3
 1fc:	0000035c 	andeq	r0, r0, ip, asr r3
 200:	00000004 	andeq	r0, r0, r4
 204:	0000000c 	andeq	r0, r0, ip
 208:	ffffffff 			; <UNDEFINED> instruction: 0xffffffff
 20c:	7c020001 	stcvc	0, cr0, [r2], {1}
 210:	000d0c0e 	andeq	r0, sp, lr, lsl #24
 214:	0000000c 	andeq	r0, r0, ip
 218:	00000204 	andeq	r0, r0, r4, lsl #4
 21c:	00000360 	andeq	r0, r0, r0, ror #6
 220:	00000006 	andeq	r0, r0, r6
 224:	0000000c 	andeq	r0, r0, ip
 228:	ffffffff 			; <UNDEFINED> instruction: 0xffffffff
 22c:	7c020001 	stcvc	0, cr0, [r2], {1}
 230:	000d0c0e 	andeq	r0, sp, lr, lsl #24
 234:	00000010 	andeq	r0, r0, r0, lsl r0
 238:	00000224 	andeq	r0, r0, r4, lsr #4
 23c:	00000000 	andeq	r0, r0, r0
 240:	0000000e 	andeq	r0, r0, lr
 244:	00080e41 	andeq	r0, r8, r1, asr #28
 248:	00000010 	andeq	r0, r0, r0, lsl r0
 24c:	00000224 	andeq	r0, r0, r4, lsr #4
 250:	00000000 	andeq	r0, r0, r0
 254:	00000016 	andeq	r0, r0, r6, lsl r0
 258:	00100e41 	andseq	r0, r0, r1, asr #28
 25c:	00000014 	andeq	r0, r0, r4, lsl r0
 260:	00000224 	andeq	r0, r0, r4, lsr #4
 264:	00000368 	andeq	r0, r0, r8, ror #6
 268:	0000001c 	andeq	r0, r0, ip, lsl r0
 26c:	8e040e41 	cdphi	14, 0, cr0, cr4, cr1, {2}
 270:	100e4101 	andne	r4, lr, r1, lsl #2
 274:	0000000c 	andeq	r0, r0, ip
 278:	ffffffff 			; <UNDEFINED> instruction: 0xffffffff
 27c:	7c020001 	stcvc	0, cr0, [r2], {1}
 280:	000d0c0e 	andeq	r0, sp, lr, lsl #24
 284:	00000018 	andeq	r0, r0, r8, lsl r0
 288:	00000274 	andeq	r0, r0, r4, ror r2
 28c:	00000384 	andeq	r0, r0, r4, lsl #7
 290:	00000048 	andeq	r0, r0, r8, asr #32
 294:	84100e41 	ldrhi	r0, [r0], #-3649	; 0xfffff1bf
 298:	86038504 	strhi	r8, [r3], -r4, lsl #10
 29c:	00018e02 	andeq	r8, r1, r2, lsl #28
 2a0:	0000000c 	andeq	r0, r0, ip
 2a4:	ffffffff 			; <UNDEFINED> instruction: 0xffffffff
 2a8:	7c020001 	stcvc	0, cr0, [r2], {1}
 2ac:	000d0c0e 	andeq	r0, sp, lr, lsl #24
 2b0:	0000000c 	andeq	r0, r0, ip
 2b4:	000002a0 	andeq	r0, r0, r0, lsr #5
 2b8:	000003cc 	andeq	r0, r0, ip, asr #7
 2bc:	00000010 	andeq	r0, r0, r0, lsl r0
 2c0:	0000000c 	andeq	r0, r0, ip
 2c4:	ffffffff 			; <UNDEFINED> instruction: 0xffffffff
 2c8:	7c020001 	stcvc	0, cr0, [r2], {1}
 2cc:	000d0c0e 	andeq	r0, sp, lr, lsl #24
 2d0:	0000001c 	andeq	r0, r0, ip, lsl r0
 2d4:	000002c0 	andeq	r0, r0, r0, asr #5
 2d8:	00000000 	andeq	r0, r0, r0
 2dc:	00000028 	andeq	r0, r0, r8, lsr #32
 2e0:	410c0e41 	tstmi	ip, r1, asr #28
 2e4:	0880200e 	stmeq	r0, {r1, r2, r3, sp}
 2e8:	06820781 	streq	r0, [r2], r1, lsl #15
 2ec:	048e0584 	streq	r0, [lr], #1412	; 0x584
 2f0:	0000001c 	andeq	r0, r0, ip, lsl r0
 2f4:	000002c0 	andeq	r0, r0, r0, asr #5
 2f8:	000003dc 	ldrdeq	r0, [r0], -ip
 2fc:	00000034 	andeq	r0, r0, r4, lsr r0
 300:	42100e41 	andsmi	r0, r0, #1040	; 0x410
 304:	0880200e 	stmeq	r0, {r1, r2, r3, sp}
 308:	06840781 	streq	r0, [r4], r1, lsl #15
 30c:	0000058e 	andeq	r0, r0, lr, lsl #11
 310:	0000000c 	andeq	r0, r0, ip
 314:	ffffffff 			; <UNDEFINED> instruction: 0xffffffff
 318:	7c020001 	stcvc	0, cr0, [r2], {1}
 31c:	000d0c0e 	andeq	r0, sp, lr, lsl #24
 320:	00000014 	andeq	r0, r0, r4, lsl r0
 324:	00000310 	andeq	r0, r0, r0, lsl r3
 328:	00000410 	andeq	r0, r0, r0, lsl r4
 32c:	00000048 	andeq	r0, r0, r8, asr #32
 330:	84080e42 	strhi	r0, [r8], #-3650	; 0xfffff1be
 334:	00018e02 	andeq	r8, r1, r2, lsl #28
 338:	00000014 	andeq	r0, r0, r4, lsl r0
 33c:	00000310 	andeq	r0, r0, r0, lsl r3
 340:	00000458 	andeq	r0, r0, r8, asr r4
 344:	00000010 	andeq	r0, r0, r0, lsl r0
 348:	84080e41 	strhi	r0, [r8], #-3649	; 0xfffff1bf
 34c:	00018e02 	andeq	r8, r1, r2, lsl #28
 350:	00000014 	andeq	r0, r0, r4, lsl r0
 354:	00000310 	andeq	r0, r0, r0, lsl r3
 358:	00000000 	andeq	r0, r0, r0
 35c:	00000018 	andeq	r0, r0, r8, lsl r0
 360:	84080e42 	strhi	r0, [r8], #-3650	; 0xfffff1be
 364:	00018e02 	andeq	r8, r1, r2, lsl #28
 368:	00000014 	andeq	r0, r0, r4, lsl r0
 36c:	00000310 	andeq	r0, r0, r0, lsl r3
 370:	00000000 	andeq	r0, r0, r0
 374:	00000018 	andeq	r0, r0, r8, lsl r0
 378:	84080e42 	strhi	r0, [r8], #-3650	; 0xfffff1be
 37c:	00018e02 	andeq	r8, r1, r2, lsl #28
 380:	00000018 	andeq	r0, r0, r8, lsl r0
 384:	00000310 	andeq	r0, r0, r0, lsl r3
 388:	00000468 	andeq	r0, r0, r8, ror #8
 38c:	0000002c 	andeq	r0, r0, ip, lsr #32
 390:	84100e41 	ldrhi	r0, [r0], #-3649	; 0xfffff1bf
 394:	86038504 	strhi	r8, [r3], -r4, lsl #10
 398:	00018e02 	andeq	r8, r1, r2, lsl #28
 39c:	00000014 	andeq	r0, r0, r4, lsl r0
 3a0:	00000310 	andeq	r0, r0, r0, lsl r3
 3a4:	00000000 	andeq	r0, r0, r0
 3a8:	00000010 	andeq	r0, r0, r0, lsl r0
 3ac:	84080e41 	strhi	r0, [r8], #-3649	; 0xfffff1bf
 3b0:	00018e02 	andeq	r8, r1, r2, lsl #28
 3b4:	00000014 	andeq	r0, r0, r4, lsl r0
 3b8:	00000310 	andeq	r0, r0, r0, lsl r3
 3bc:	00000494 	muleq	r0, r4, r4
 3c0:	00000010 	andeq	r0, r0, r0, lsl r0
 3c4:	84080e41 	strhi	r0, [r8], #-3649	; 0xfffff1bf
 3c8:	00018e02 	andeq	r8, r1, r2, lsl #28
 3cc:	00000014 	andeq	r0, r0, r4, lsl r0
 3d0:	00000310 	andeq	r0, r0, r0, lsl r3
 3d4:	000004a4 	andeq	r0, r0, r4, lsr #9
 3d8:	00000010 	andeq	r0, r0, r0, lsl r0
 3dc:	84080e41 	strhi	r0, [r8], #-3649	; 0xfffff1bf
 3e0:	00018e02 	andeq	r8, r1, r2, lsl #28
 3e4:	00000014 	andeq	r0, r0, r4, lsl r0
 3e8:	00000310 	andeq	r0, r0, r0, lsl r3
 3ec:	000004b4 			; <UNDEFINED> instruction: 0x000004b4
 3f0:	00000010 	andeq	r0, r0, r0, lsl r0
 3f4:	84080e41 	strhi	r0, [r8], #-3649	; 0xfffff1bf
 3f8:	00018e02 	andeq	r8, r1, r2, lsl #28
 3fc:	00000014 	andeq	r0, r0, r4, lsl r0
 400:	00000310 	andeq	r0, r0, r0, lsl r3
 404:	000004c4 	andeq	r0, r0, r4, asr #9
 408:	00000010 	andeq	r0, r0, r0, lsl r0
 40c:	84080e41 	strhi	r0, [r8], #-3649	; 0xfffff1bf
 410:	00018e02 	andeq	r8, r1, r2, lsl #28
 414:	00000018 	andeq	r0, r0, r8, lsl r0
 418:	00000310 	andeq	r0, r0, r0, lsl r3
 41c:	000004d4 	ldrdeq	r0, [r0], -r4
 420:	00000070 	andeq	r0, r0, r0, ror r0
 424:	80100e41 	andshi	r0, r0, r1, asr #28
 428:	84038104 	strhi	r8, [r3], #-260	; 0xfffffefc
 42c:	00018e02 	andeq	r8, r1, r2, lsl #28
 430:	0000001c 	andeq	r0, r0, ip, lsl r0
 434:	00000310 	andeq	r0, r0, r0, lsl r3
 438:	00000544 	andeq	r0, r0, r4, asr #10
 43c:	00000090 	muleq	r0, r0, r0
 440:	83180e41 	tsthi	r8, #1040	; 0x410
 444:	85058406 	strhi	r8, [r5, #-1030]	; 0xfffffbfa
 448:	87038604 	strhi	r8, [r3, -r4, lsl #12]
 44c:	00018e02 	andeq	r8, r1, r2, lsl #28
 450:	00000014 	andeq	r0, r0, r4, lsl r0
 454:	00000310 	andeq	r0, r0, r0, lsl r3
 458:	00000000 	andeq	r0, r0, r0
 45c:	0000001c 	andeq	r0, r0, ip, lsl r0
 460:	84080e41 	strhi	r0, [r8], #-3649	; 0xfffff1bf
 464:	00018e02 	andeq	r8, r1, r2, lsl #28
 468:	00000014 	andeq	r0, r0, r4, lsl r0
 46c:	00000310 	andeq	r0, r0, r0, lsl r3
 470:	00000000 	andeq	r0, r0, r0
 474:	0000001c 	andeq	r0, r0, ip, lsl r0
 478:	84080e41 	strhi	r0, [r8], #-3649	; 0xfffff1bf
 47c:	00018e02 	andeq	r8, r1, r2, lsl #28
 480:	0000000c 	andeq	r0, r0, ip
 484:	ffffffff 			; <UNDEFINED> instruction: 0xffffffff
 488:	7c020001 	stcvc	0, cr0, [r2], {1}
 48c:	000d0c0e 	andeq	r0, sp, lr, lsl #24
 490:	00000020 	andeq	r0, r0, r0, lsr #32
 494:	00000480 	andeq	r0, r0, r0, lsl #9
 498:	00000000 	andeq	r0, r0, r0
 49c:	00000036 	andeq	r0, r0, r6, lsr r0
 4a0:	80200e41 	eorhi	r0, r0, r1, asr #28
 4a4:	82078108 	andhi	r8, r7, #8, 2
 4a8:	85058406 	strhi	r8, [r5, #-1030]	; 0xfffffbfa
 4ac:	87038604 	strhi	r8, [r3, -r4, lsl #12]
 4b0:	00018e02 	andeq	r8, r1, r2, lsl #28
 4b4:	00000020 	andeq	r0, r0, r0, lsr #32
 4b8:	00000480 	andeq	r0, r0, r0, lsl #9
 4bc:	000005d4 	ldrdeq	r0, [r0], -r4
 4c0:	00000040 	andeq	r0, r0, r0, asr #32
 4c4:	80200e41 	eorhi	r0, r0, r1, asr #28
 4c8:	82078108 	andhi	r8, r7, #8, 2
 4cc:	85058406 	strhi	r8, [r5, #-1030]	; 0xfffffbfa
 4d0:	87038604 	strhi	r8, [r3, -r4, lsl #12]
 4d4:	00018e02 	andeq	r8, r1, r2, lsl #28
 4d8:	0000000c 	andeq	r0, r0, ip
 4dc:	ffffffff 			; <UNDEFINED> instruction: 0xffffffff
 4e0:	7c020001 	stcvc	0, cr0, [r2], {1}
 4e4:	000d0c0e 	andeq	r0, sp, lr, lsl #24
 4e8:	0000000c 	andeq	r0, r0, ip
 4ec:	000004d8 	ldrdeq	r0, [r0], -r8
 4f0:	00000000 	andeq	r0, r0, r0
 4f4:	00000002 	andeq	r0, r0, r2
 4f8:	0000000c 	andeq	r0, r0, ip
 4fc:	000004d8 	ldrdeq	r0, [r0], -r8
 500:	00000614 	andeq	r0, r0, r4, lsl r6
 504:	00000002 	andeq	r0, r0, r2
 508:	0000000c 	andeq	r0, r0, ip
 50c:	000004d8 	ldrdeq	r0, [r0], -r8
 510:	00000000 	andeq	r0, r0, r0
 514:	00000002 	andeq	r0, r0, r2
 518:	0000000c 	andeq	r0, r0, ip
 51c:	000004d8 	ldrdeq	r0, [r0], -r8
 520:	00000000 	andeq	r0, r0, r0
 524:	00000002 	andeq	r0, r0, r2
 528:	0000000c 	andeq	r0, r0, ip
 52c:	000004d8 	ldrdeq	r0, [r0], -r8
 530:	00000000 	andeq	r0, r0, r0
 534:	00000002 	andeq	r0, r0, r2
 538:	0000000c 	andeq	r0, r0, ip
 53c:	000004d8 	ldrdeq	r0, [r0], -r8
 540:	00000616 	andeq	r0, r0, r6, lsl r6
 544:	00000002 	andeq	r0, r0, r2
 548:	0000000c 	andeq	r0, r0, ip
 54c:	000004d8 	ldrdeq	r0, [r0], -r8
 550:	00000000 	andeq	r0, r0, r0
 554:	00000004 	andeq	r0, r0, r4
 558:	0000000c 	andeq	r0, r0, ip
 55c:	000004d8 	ldrdeq	r0, [r0], -r8
 560:	00000000 	andeq	r0, r0, r0
 564:	00000004 	andeq	r0, r0, r4
 568:	0000000c 	andeq	r0, r0, ip
 56c:	000004d8 	ldrdeq	r0, [r0], -r8
 570:	00000000 	andeq	r0, r0, r0
 574:	00000002 	andeq	r0, r0, r2
 578:	0000000c 	andeq	r0, r0, ip
 57c:	000004d8 	ldrdeq	r0, [r0], -r8
 580:	00000618 	andeq	r0, r0, r8, lsl r6
 584:	00000002 	andeq	r0, r0, r2
 588:	0000000c 	andeq	r0, r0, ip
 58c:	ffffffff 			; <UNDEFINED> instruction: 0xffffffff
 590:	7c020001 	stcvc	0, cr0, [r2], {1}
 594:	000d0c0e 	andeq	r0, sp, lr, lsl #24
 598:	0000001c 	andeq	r0, r0, ip, lsl r0
 59c:	00000588 	andeq	r0, r0, r8, lsl #11
 5a0:	0000061c 	andeq	r0, r0, ip, lsl r6
 5a4:	000000bc 	strheq	r0, [r0], -ip
 5a8:	83180e41 	tsthi	r8, #1040	; 0x410
 5ac:	85058406 	strhi	r8, [r5, #-1030]	; 0xfffffbfa
 5b0:	87038604 	strhi	r8, [r3, -r4, lsl #12]
 5b4:	00018e02 	andeq	r8, r1, r2, lsl #28
 5b8:	0000000c 	andeq	r0, r0, ip
 5bc:	ffffffff 			; <UNDEFINED> instruction: 0xffffffff
 5c0:	7c020001 	stcvc	0, cr0, [r2], {1}
 5c4:	000d0c0e 	andeq	r0, sp, lr, lsl #24
 5c8:	00000014 	andeq	r0, r0, r4, lsl r0
 5cc:	000005b8 			; <UNDEFINED> instruction: 0x000005b8
 5d0:	000006d8 	ldrdeq	r0, [r0], -r8
 5d4:	0000002a 	andeq	r0, r0, sl, lsr #32
 5d8:	84080e42 	strhi	r0, [r8], #-3650	; 0xfffff1be
 5dc:	00018e02 	andeq	r8, r1, r2, lsl #28
 5e0:	0000001c 	andeq	r0, r0, ip, lsl r0
 5e4:	000005b8 			; <UNDEFINED> instruction: 0x000005b8
 5e8:	00000702 	andeq	r0, r0, r2, lsl #14
 5ec:	00000024 	andeq	r0, r0, r4, lsr #32
 5f0:	83180e41 	tsthi	r8, #1040	; 0x410
 5f4:	85058406 	strhi	r8, [r5, #-1030]	; 0xfffffbfa
 5f8:	87038604 	strhi	r8, [r3, -r4, lsl #12]
 5fc:	00018e02 	andeq	r8, r1, r2, lsl #28
 600:	00000014 	andeq	r0, r0, r4, lsl r0
 604:	000005b8 			; <UNDEFINED> instruction: 0x000005b8
 608:	00000000 	andeq	r0, r0, r0
 60c:	0000001c 	andeq	r0, r0, ip, lsl r0
 610:	84080e42 	strhi	r0, [r8], #-3650	; 0xfffff1be
 614:	00018e02 	andeq	r8, r1, r2, lsl #28
 618:	00000020 	andeq	r0, r0, r0, lsr #32
 61c:	000005b8 			; <UNDEFINED> instruction: 0x000005b8
 620:	00000728 	andeq	r0, r0, r8, lsr #14
 624:	00000274 	andeq	r0, r0, r4, ror r2
 628:	84140e41 	ldrhi	r0, [r4], #-3649	; 0xfffff1bf
 62c:	86048505 	strhi	r8, [r4], -r5, lsl #10
 630:	8e028703 	cdphi	7, 0, cr8, cr2, cr3, {0}
 634:	980e4101 	stmdals	lr, {r0, r8, lr}
 638:	00000001 	andeq	r0, r0, r1
 63c:	00000014 	andeq	r0, r0, r4, lsl r0
 640:	000005b8 			; <UNDEFINED> instruction: 0x000005b8
 644:	00000000 	andeq	r0, r0, r0
 648:	00000018 	andeq	r0, r0, r8, lsl r0
 64c:	84080e41 	strhi	r0, [r8], #-3649	; 0xfffff1bf
 650:	00018e02 	andeq	r8, r1, r2, lsl #28
 654:	0000000c 	andeq	r0, r0, ip
 658:	ffffffff 			; <UNDEFINED> instruction: 0xffffffff
 65c:	7c020001 	stcvc	0, cr0, [r2], {1}
 660:	000d0c0e 	andeq	r0, sp, lr, lsl #24
 664:	00000020 	andeq	r0, r0, r0, lsr #32
 668:	00000654 	andeq	r0, r0, r4, asr r6
 66c:	0000099c 	muleq	r0, ip, r9
 670:	000000de 	ldrdeq	r0, [r0], -lr
 674:	80200e41 	eorhi	r0, r0, r1, asr #28
 678:	82078108 	andhi	r8, r7, #8, 2
 67c:	85058406 	strhi	r8, [r5, #-1030]	; 0xfffffbfa
 680:	87038604 	strhi	r8, [r3, -r4, lsl #12]
 684:	00018e02 	andeq	r8, r1, r2, lsl #28
 688:	0000001c 	andeq	r0, r0, ip, lsl r0
 68c:	00000654 	andeq	r0, r0, r4, asr r6
 690:	00000a7c 	andeq	r0, r0, ip, ror sl
 694:	00000224 	andeq	r0, r0, r4, lsr #4
 698:	84140e41 	ldrhi	r0, [r4], #-3649	; 0xfffff1bf
 69c:	86048505 	strhi	r8, [r4], -r5, lsl #10
 6a0:	8e028703 	cdphi	7, 0, cr8, cr2, cr3, {0}
 6a4:	400e4101 	andmi	r4, lr, r1, lsl #2
 6a8:	0000000c 	andeq	r0, r0, ip
 6ac:	ffffffff 			; <UNDEFINED> instruction: 0xffffffff
 6b0:	7c020001 	stcvc	0, cr0, [r2], {1}
 6b4:	000d0c0e 	andeq	r0, sp, lr, lsl #24
 6b8:	00000018 	andeq	r0, r0, r8, lsl r0
 6bc:	000006a8 	andeq	r0, r0, r8, lsr #13
 6c0:	00000ca0 	andeq	r0, r0, r0, lsr #25
 6c4:	00000024 	andeq	r0, r0, r4, lsr #32
 6c8:	84100e42 	ldrhi	r0, [r0], #-3650	; 0xfffff1be
 6cc:	86038504 	strhi	r8, [r3], -r4, lsl #10
 6d0:	00018e02 	andeq	r8, r1, r2, lsl #28
 6d4:	0000000c 	andeq	r0, r0, ip
 6d8:	ffffffff 			; <UNDEFINED> instruction: 0xffffffff
 6dc:	7c020001 	stcvc	0, cr0, [r2], {1}
 6e0:	000d0c0e 	andeq	r0, sp, lr, lsl #24
 6e4:	00000018 	andeq	r0, r0, r8, lsl r0
 6e8:	000006d4 	ldrdeq	r0, [r0], -r4
 6ec:	00000cc4 	andeq	r0, r0, r4, asr #25
 6f0:	00000028 	andeq	r0, r0, r8, lsr #32
 6f4:	84100e41 	ldrhi	r0, [r0], #-3649	; 0xfffff1bf
 6f8:	86038504 	strhi	r8, [r3], -r4, lsl #10
 6fc:	00018e02 	andeq	r8, r1, r2, lsl #28
 700:	0000000c 	andeq	r0, r0, ip
 704:	000006d4 	ldrdeq	r0, [r0], -r4
 708:	00000000 	andeq	r0, r0, r0
 70c:	00000004 	andeq	r0, r0, r4
 710:	0000001c 	andeq	r0, r0, ip, lsl r0
 714:	000006d4 	ldrdeq	r0, [r0], -r4
 718:	00000cec 	andeq	r0, r0, ip, ror #25
 71c:	00000038 	andeq	r0, r0, r8, lsr r0
 720:	83180e41 	tsthi	r8, #1040	; 0x410
 724:	85058406 	strhi	r8, [r5, #-1030]	; 0xfffffbfa
 728:	87038604 	strhi	r8, [r3, -r4, lsl #12]
 72c:	00018e02 	andeq	r8, r1, r2, lsl #28
 730:	00000018 	andeq	r0, r0, r8, lsl r0
 734:	000006d4 	ldrdeq	r0, [r0], -r4
 738:	00000d24 	andeq	r0, r0, r4, lsr #26
 73c:	0000002c 	andeq	r0, r0, ip, lsr #32
 740:	84100e41 	ldrhi	r0, [r0], #-3649	; 0xfffff1bf
 744:	86038504 	strhi	r8, [r3], -r4, lsl #10
 748:	00018e02 	andeq	r8, r1, r2, lsl #28
 74c:	00000014 	andeq	r0, r0, r4, lsl r0
 750:	000006d4 	ldrdeq	r0, [r0], -r4
 754:	00000d50 	andeq	r0, r0, r0, asr sp
 758:	0000000c 	andeq	r0, r0, ip
 75c:	84080e41 	strhi	r0, [r8], #-3649	; 0xfffff1bf
 760:	00018e02 	andeq	r8, r1, r2, lsl #28
 764:	0000000c 	andeq	r0, r0, ip
 768:	ffffffff 			; <UNDEFINED> instruction: 0xffffffff
 76c:	7c020001 	stcvc	0, cr0, [r2], {1}
 770:	000d0c0e 	andeq	r0, sp, lr, lsl #24
 774:	0000001c 	andeq	r0, r0, ip, lsl r0
 778:	00000764 	andeq	r0, r0, r4, ror #14
 77c:	00000d5c 	andeq	r0, r0, ip, asr sp
 780:	000000ac 	andeq	r0, r0, ip, lsr #1
 784:	83180e41 	tsthi	r8, #1040	; 0x410
 788:	85058406 	strhi	r8, [r5, #-1030]	; 0xfffffbfa
 78c:	87038604 	strhi	r8, [r3, -r4, lsl #12]
 790:	00018e02 	andeq	r8, r1, r2, lsl #28
 794:	00000014 	andeq	r0, r0, r4, lsl r0
 798:	00000764 	andeq	r0, r0, r4, ror #14
 79c:	00000000 	andeq	r0, r0, r0
 7a0:	00000014 	andeq	r0, r0, r4, lsl r0
 7a4:	84080e41 	strhi	r0, [r8], #-3649	; 0xfffff1bf
 7a8:	00018e02 	andeq	r8, r1, r2, lsl #28
 7ac:	0000000c 	andeq	r0, r0, ip
 7b0:	ffffffff 			; <UNDEFINED> instruction: 0xffffffff
 7b4:	7c020001 	stcvc	0, cr0, [r2], {1}
 7b8:	000d0c0e 	andeq	r0, sp, lr, lsl #24
 7bc:	00000018 	andeq	r0, r0, r8, lsl r0
 7c0:	000007ac 	andeq	r0, r0, ip, lsr #15
 7c4:	00000e08 	andeq	r0, r0, r8, lsl #28
 7c8:	00000028 	andeq	r0, r0, r8, lsr #32
 7cc:	84100e41 	ldrhi	r0, [r0], #-3649	; 0xfffff1bf
 7d0:	86038504 	strhi	r8, [r3], -r4, lsl #10
 7d4:	00018e02 	andeq	r8, r1, r2, lsl #28
 7d8:	0000000c 	andeq	r0, r0, ip
 7dc:	ffffffff 			; <UNDEFINED> instruction: 0xffffffff
 7e0:	7c020001 	stcvc	0, cr0, [r2], {1}
 7e4:	000d0c0e 	andeq	r0, sp, lr, lsl #24
 7e8:	00000018 	andeq	r0, r0, r8, lsl r0
 7ec:	000007d8 	ldrdeq	r0, [r0], -r8
 7f0:	00000e30 	andeq	r0, r0, r0, lsr lr
 7f4:	000000f0 	strdeq	r0, [r0], -r0	; <UNPREDICTABLE>
 7f8:	84100e42 	ldrhi	r0, [r0], #-3650	; 0xfffff1be
 7fc:	86038504 	strhi	r8, [r3], -r4, lsl #10
 800:	00018e02 	andeq	r8, r1, r2, lsl #28
 804:	0000000c 	andeq	r0, r0, ip
 808:	ffffffff 			; <UNDEFINED> instruction: 0xffffffff
 80c:	7c020001 	stcvc	0, cr0, [r2], {1}
 810:	000d0c0e 	andeq	r0, sp, lr, lsl #24
 814:	00000018 	andeq	r0, r0, r8, lsl r0
 818:	00000804 	andeq	r0, r0, r4, lsl #16
 81c:	00000f20 	andeq	r0, r0, r0, lsr #30
 820:	00000024 	andeq	r0, r0, r4, lsr #32
 824:	84100e42 	ldrhi	r0, [r0], #-3650	; 0xfffff1be
 828:	86038504 	strhi	r8, [r3], -r4, lsl #10
 82c:	00018e02 	andeq	r8, r1, r2, lsl #28
 830:	0000000c 	andeq	r0, r0, ip
 834:	ffffffff 			; <UNDEFINED> instruction: 0xffffffff
 838:	7c020001 	stcvc	0, cr0, [r2], {1}
 83c:	000d0c0e 	andeq	r0, sp, lr, lsl #24
 840:	00000020 	andeq	r0, r0, r0, lsr #32
 844:	00000830 	andeq	r0, r0, r0, lsr r8
 848:	00000f44 	andeq	r0, r0, r4, asr #30
 84c:	00000118 	andeq	r0, r0, r8, lsl r1
 850:	80200e41 	eorhi	r0, r0, r1, asr #28
 854:	82078108 	andhi	r8, r7, #8, 2
 858:	85058406 	strhi	r8, [r5, #-1030]	; 0xfffffbfa
 85c:	87038604 	strhi	r8, [r3, -r4, lsl #12]
 860:	00018e02 	andeq	r8, r1, r2, lsl #28
 864:	00000018 	andeq	r0, r0, r8, lsl r0
 868:	00000830 	andeq	r0, r0, r0, lsr r8
 86c:	0000105c 	andeq	r1, r0, ip, asr r0
 870:	00000080 	andeq	r0, r0, r0, lsl #1
 874:	84100e42 	ldrhi	r0, [r0], #-3650	; 0xfffff1be
 878:	86038504 	strhi	r8, [r3], -r4, lsl #10
 87c:	00018e02 	andeq	r8, r1, r2, lsl #28
 880:	00000014 	andeq	r0, r0, r4, lsl r0
 884:	00000830 	andeq	r0, r0, r0, lsr r8
 888:	00000000 	andeq	r0, r0, r0
 88c:	0000002c 	andeq	r0, r0, ip, lsr #32
 890:	84080e42 	strhi	r0, [r8], #-3650	; 0xfffff1be
 894:	00018e02 	andeq	r8, r1, r2, lsl #28
 898:	0000000c 	andeq	r0, r0, ip
 89c:	ffffffff 			; <UNDEFINED> instruction: 0xffffffff
 8a0:	7c020001 	stcvc	0, cr0, [r2], {1}
 8a4:	000d0c0e 	andeq	r0, sp, lr, lsl #24
 8a8:	00000018 	andeq	r0, r0, r8, lsl r0
 8ac:	00000898 	muleq	r0, r8, r8
 8b0:	000010dc 	ldrdeq	r1, [r0], -ip
 8b4:	00000028 	andeq	r0, r0, r8, lsr #32
 8b8:	84100e41 	ldrhi	r0, [r0], #-3649	; 0xfffff1bf
 8bc:	86038504 	strhi	r8, [r3], -r4, lsl #10
 8c0:	00018e02 	andeq	r8, r1, r2, lsl #28
 8c4:	0000000c 	andeq	r0, r0, ip
 8c8:	ffffffff 			; <UNDEFINED> instruction: 0xffffffff
 8cc:	7c020001 	stcvc	0, cr0, [r2], {1}
 8d0:	000d0c0e 	andeq	r0, sp, lr, lsl #24
 8d4:	0000001c 	andeq	r0, r0, ip, lsl r0
 8d8:	000008c4 	andeq	r0, r0, r4, asr #17
 8dc:	00001104 	andeq	r1, r0, r4, lsl #2
 8e0:	00000050 	andeq	r0, r0, r0, asr r0
 8e4:	84100e41 	ldrhi	r0, [r0], #-3649	; 0xfffff1bf
 8e8:	86038504 	strhi	r8, [r3], -r4, lsl #10
 8ec:	46018e02 	strmi	r8, [r1], -r2, lsl #28
 8f0:	0000680e 	andeq	r6, r0, lr, lsl #16
 8f4:	00000020 	andeq	r0, r0, r0, lsr #32
 8f8:	000008c4 	andeq	r0, r0, r4, asr #17
 8fc:	00001154 	andeq	r1, r0, r4, asr r1
 900:	00000088 	andeq	r0, r0, r8, lsl #1
 904:	80200e41 	eorhi	r0, r0, r1, asr #28
 908:	82078108 	andhi	r8, r7, #8, 2
 90c:	85058406 	strhi	r8, [r5, #-1030]	; 0xfffffbfa
 910:	87038604 	strhi	r8, [r3, -r4, lsl #12]
 914:	00018e02 	andeq	r8, r1, r2, lsl #28
 918:	0000000c 	andeq	r0, r0, ip
 91c:	ffffffff 			; <UNDEFINED> instruction: 0xffffffff
 920:	7c020001 	stcvc	0, cr0, [r2], {1}
 924:	000d0c0e 	andeq	r0, sp, lr, lsl #24
 928:	0000000c 	andeq	r0, r0, ip
 92c:	00000918 	andeq	r0, r0, r8, lsl r9
 930:	000011dc 	ldrdeq	r1, [r0], -ip
 934:	00000016 	andeq	r0, r0, r6, lsl r0
 938:	0000000c 	andeq	r0, r0, ip
 93c:	ffffffff 			; <UNDEFINED> instruction: 0xffffffff
 940:	7c020001 	stcvc	0, cr0, [r2], {1}
 944:	000d0c0e 	andeq	r0, sp, lr, lsl #24
 948:	00000014 	andeq	r0, r0, r4, lsl r0
 94c:	00000938 	andeq	r0, r0, r8, lsr r9
 950:	000011f4 	strdeq	r1, [r0], -r4
 954:	00000010 	andeq	r0, r0, r0, lsl r0
 958:	84080e41 	strhi	r0, [r8], #-3649	; 0xfffff1bf
 95c:	00018e02 	andeq	r8, r1, r2, lsl #28
 960:	00000014 	andeq	r0, r0, r4, lsl r0
 964:	00000938 	andeq	r0, r0, r8, lsr r9
 968:	00001204 	andeq	r1, r0, r4, lsl #4
 96c:	00000010 	andeq	r0, r0, r0, lsl r0
 970:	84080e41 	strhi	r0, [r8], #-3649	; 0xfffff1bf
 974:	00018e02 	andeq	r8, r1, r2, lsl #28
 978:	0000000c 	andeq	r0, r0, ip
 97c:	ffffffff 			; <UNDEFINED> instruction: 0xffffffff
 980:	7c020001 	stcvc	0, cr0, [r2], {1}
 984:	000d0c0e 	andeq	r0, sp, lr, lsl #24
 988:	00000018 	andeq	r0, r0, r8, lsl r0
 98c:	00000978 	andeq	r0, r0, r8, ror r9
 990:	00001214 	andeq	r1, r0, r4, lsl r2
 994:	00000094 	muleq	r0, r4, r0
 998:	84100e41 	ldrhi	r0, [r0], #-3649	; 0xfffff1bf
 99c:	86038504 	strhi	r8, [r3], -r4, lsl #10
 9a0:	00018e02 	andeq	r8, r1, r2, lsl #28
 9a4:	0000000c 	andeq	r0, r0, ip
 9a8:	ffffffff 			; <UNDEFINED> instruction: 0xffffffff
 9ac:	7c020001 	stcvc	0, cr0, [r2], {1}
 9b0:	000d0c0e 	andeq	r0, sp, lr, lsl #24
 9b4:	00000018 	andeq	r0, r0, r8, lsl r0
 9b8:	000009a4 	andeq	r0, r0, r4, lsr #19
 9bc:	000012a8 	andeq	r1, r0, r8, lsr #5
 9c0:	00000028 	andeq	r0, r0, r8, lsr #32
 9c4:	84100e41 	ldrhi	r0, [r0], #-3649	; 0xfffff1bf
 9c8:	86038504 	strhi	r8, [r3], -r4, lsl #10
 9cc:	00018e02 	andeq	r8, r1, r2, lsl #28
 9d0:	0000000c 	andeq	r0, r0, ip
 9d4:	ffffffff 			; <UNDEFINED> instruction: 0xffffffff
 9d8:	7c020001 	stcvc	0, cr0, [r2], {1}
 9dc:	000d0c0e 	andeq	r0, sp, lr, lsl #24
 9e0:	00000018 	andeq	r0, r0, r8, lsl r0
 9e4:	000009d0 	ldrdeq	r0, [r0], -r0	; <UNPREDICTABLE>
 9e8:	00000000 	andeq	r0, r0, r0
 9ec:	0000001a 	andeq	r0, r0, sl, lsl r0
 9f0:	84100e41 	ldrhi	r0, [r0], #-3649	; 0xfffff1bf
 9f4:	86038504 	strhi	r8, [r3], -r4, lsl #10
 9f8:	00018e02 	andeq	r8, r1, r2, lsl #28
 9fc:	00000018 	andeq	r0, r0, r8, lsl r0
 a00:	000009d0 	ldrdeq	r0, [r0], -r0	; <UNPREDICTABLE>
 a04:	00000000 	andeq	r0, r0, r0
 a08:	000000cc 	andeq	r0, r0, ip, asr #1
 a0c:	84100e42 	ldrhi	r0, [r0], #-3650	; 0xfffff1be
 a10:	86038504 	strhi	r8, [r3], -r4, lsl #10
 a14:	00018e02 	andeq	r8, r1, r2, lsl #28
 a18:	0000000c 	andeq	r0, r0, ip
 a1c:	ffffffff 			; <UNDEFINED> instruction: 0xffffffff
 a20:	7c020001 	stcvc	0, cr0, [r2], {1}
 a24:	000d0c0e 	andeq	r0, sp, lr, lsl #24
 a28:	00000018 	andeq	r0, r0, r8, lsl r0
 a2c:	00000a18 	andeq	r0, r0, r8, lsl sl
 a30:	000012d0 	ldrdeq	r1, [r0], -r0
 a34:	00000024 	andeq	r0, r0, r4, lsr #32
 a38:	84100e42 	ldrhi	r0, [r0], #-3650	; 0xfffff1be
 a3c:	86038504 	strhi	r8, [r3], -r4, lsl #10
 a40:	00018e02 	andeq	r8, r1, r2, lsl #28
 a44:	0000000c 	andeq	r0, r0, ip
 a48:	ffffffff 			; <UNDEFINED> instruction: 0xffffffff
 a4c:	7c020001 	stcvc	0, cr0, [r2], {1}
 a50:	000d0c0e 	andeq	r0, sp, lr, lsl #24
 a54:	00000018 	andeq	r0, r0, r8, lsl r0
 a58:	00000a44 	andeq	r0, r0, r4, asr #20
 a5c:	000012f4 	strdeq	r1, [r0], -r4
 a60:	00000024 	andeq	r0, r0, r4, lsr #32
 a64:	84100e42 	ldrhi	r0, [r0], #-3650	; 0xfffff1be
 a68:	86038504 	strhi	r8, [r3], -r4, lsl #10
 a6c:	00018e02 	andeq	r8, r1, r2, lsl #28
 a70:	0000000c 	andeq	r0, r0, ip
 a74:	ffffffff 			; <UNDEFINED> instruction: 0xffffffff
 a78:	7c010001 	stcvc	0, cr0, [r1], {1}
 a7c:	000d0c0e 	andeq	r0, sp, lr, lsl #24
 a80:	0000000c 	andeq	r0, r0, ip
 a84:	00000a70 	andeq	r0, r0, r0, ror sl
 a88:	000000ad 	andeq	r0, r0, sp, lsr #1
 a8c:	0000010a 	andeq	r0, r0, sl, lsl #2
 a90:	0000000c 	andeq	r0, r0, ip
 a94:	ffffffff 			; <UNDEFINED> instruction: 0xffffffff
 a98:	7c020001 	stcvc	0, cr0, [r2], {1}
 a9c:	000d0c0e 	andeq	r0, sp, lr, lsl #24
 aa0:	0000000c 	andeq	r0, r0, ip
 aa4:	00000a90 	muleq	r0, r0, sl
 aa8:	00001318 	andeq	r1, r0, r8, lsl r3
 aac:	0000001c 	andeq	r0, r0, ip, lsl r0
